; Listing generated by Microsoft (R) Optimizing Compiler Version 18.00.21005.1 

	TITLE	F:\0\luaspq-1.1\luaspq-1.1\src\linit.c
	.686P
	.XMM
	include listing.inc
	.model	flat

INCLUDELIB MSVCRT
INCLUDELIB OLDNAMES

PUBLIC	??_C@_02NIGGJGKC@_G?$AA@			; `string'
PUBLIC	??_C@_07KNEGBPNO@package?$AA@			; `string'
PUBLIC	??_C@_09HNKENHFC@coroutine?$AA@			; `string'
PUBLIC	??_C@_05LCLENNFI@table?$AA@			; `string'
PUBLIC	??_C@_02KFNNKBCK@io?$AA@			; `string'
PUBLIC	??_C@_02EHCHIAMF@os?$AA@			; `string'
PUBLIC	??_C@_06ICGJLFIM@string?$AA@			; `string'
PUBLIC	??_C@_04CFDJAKFL@math?$AA@			; `string'
PUBLIC	??_C@_04LHHHFLPP@utf8?$AA@			; `string'
PUBLIC	??_C@_05GFCDIDHO@debug?$AA@			; `string'
PUBLIC	??_C@_05LACDNNEC@bit32?$AA@			; `string'
EXTRN	_luaopen_base:PROC
EXTRN	_luaopen_coroutine:PROC
EXTRN	_luaopen_table:PROC
EXTRN	_luaopen_io:PROC
EXTRN	_luaopen_os:PROC
EXTRN	_luaopen_string:PROC
EXTRN	_luaopen_utf8:PROC
EXTRN	_luaopen_bit32:PROC
EXTRN	_luaopen_math:PROC
EXTRN	_luaopen_debug:PROC
EXTRN	_luaopen_package:PROC
;	COMDAT ??_C@_05LACDNNEC@bit32?$AA@
CONST	SEGMENT
??_C@_05LACDNNEC@bit32?$AA@ DB 'bit32', 00H		; `string'
CONST	ENDS
;	COMDAT ??_C@_05GFCDIDHO@debug?$AA@
CONST	SEGMENT
??_C@_05GFCDIDHO@debug?$AA@ DB 'debug', 00H		; `string'
CONST	ENDS
;	COMDAT ??_C@_04LHHHFLPP@utf8?$AA@
CONST	SEGMENT
??_C@_04LHHHFLPP@utf8?$AA@ DB 'utf8', 00H		; `string'
CONST	ENDS
;	COMDAT ??_C@_04CFDJAKFL@math?$AA@
CONST	SEGMENT
??_C@_04CFDJAKFL@math?$AA@ DB 'math', 00H		; `string'
CONST	ENDS
;	COMDAT ??_C@_06ICGJLFIM@string?$AA@
CONST	SEGMENT
??_C@_06ICGJLFIM@string?$AA@ DB 'string', 00H		; `string'
CONST	ENDS
;	COMDAT ??_C@_02EHCHIAMF@os?$AA@
CONST	SEGMENT
??_C@_02EHCHIAMF@os?$AA@ DB 'os', 00H			; `string'
CONST	ENDS
;	COMDAT ??_C@_02KFNNKBCK@io?$AA@
CONST	SEGMENT
??_C@_02KFNNKBCK@io?$AA@ DB 'io', 00H			; `string'
CONST	ENDS
;	COMDAT ??_C@_05LCLENNFI@table?$AA@
CONST	SEGMENT
??_C@_05LCLENNFI@table?$AA@ DB 'table', 00H		; `string'
CONST	ENDS
;	COMDAT ??_C@_09HNKENHFC@coroutine?$AA@
CONST	SEGMENT
??_C@_09HNKENHFC@coroutine?$AA@ DB 'coroutine', 00H	; `string'
CONST	ENDS
;	COMDAT ??_C@_07KNEGBPNO@package?$AA@
CONST	SEGMENT
??_C@_07KNEGBPNO@package?$AA@ DB 'package', 00H		; `string'
CONST	ENDS
;	COMDAT ??_C@_02NIGGJGKC@_G?$AA@
CONST	SEGMENT
??_C@_02NIGGJGKC@_G?$AA@ DB '_G', 00H			; `string'
CONST	ENDS
CONST	SEGMENT
_loadedlibs DD	FLAT:??_C@_02NIGGJGKC@_G?$AA@
	DD	FLAT:_luaopen_base
	DD	FLAT:??_C@_07KNEGBPNO@package?$AA@
	DD	FLAT:_luaopen_package
	DD	FLAT:??_C@_09HNKENHFC@coroutine?$AA@
	DD	FLAT:_luaopen_coroutine
	DD	FLAT:??_C@_05LCLENNFI@table?$AA@
	DD	FLAT:_luaopen_table
	DD	FLAT:??_C@_02KFNNKBCK@io?$AA@
	DD	FLAT:_luaopen_io
	DD	FLAT:??_C@_02EHCHIAMF@os?$AA@
	DD	FLAT:_luaopen_os
	DD	FLAT:??_C@_06ICGJLFIM@string?$AA@
	DD	FLAT:_luaopen_string
	DD	FLAT:??_C@_04CFDJAKFL@math?$AA@
	DD	FLAT:_luaopen_math
	DD	FLAT:??_C@_04LHHHFLPP@utf8?$AA@
	DD	FLAT:_luaopen_utf8
	DD	FLAT:??_C@_05GFCDIDHO@debug?$AA@
	DD	FLAT:_luaopen_debug
	DD	FLAT:??_C@_05LACDNNEC@bit32?$AA@
	DD	FLAT:_luaopen_bit32
	DD	00H
	DD	00H
CONST	ENDS
PUBLIC	_luaL_openlibs
EXTRN	_lua_settop:PROC
EXTRN	_luaL_requiref:PROC
; Function compile flags: /Ogtp
;	COMDAT _luaL_openlibs
_TEXT	SEGMENT
_L$ = 8							; size = 4
_luaL_openlibs PROC					; COMDAT
; File f:\0\luaspq-1.1\luaspq-1.1\src\linit.c
; Line 60
  00000	55		 push	 ebp
  00001	8b ec		 mov	 ebp, esp
; Line 63
  00003	a1 04 00 00 00	 mov	 eax, DWORD PTR _loadedlibs+4
  00008	56		 push	 esi
  00009	be 00 00 00 00	 mov	 esi, OFFSET _loadedlibs
  0000e	85 c0		 test	 eax, eax
  00010	74 25		 je	 SHORT $LN1@luaL_openl
  00012	57		 push	 edi
  00013	8b 7d 08	 mov	 edi, DWORD PTR _L$[ebp]
$LL3@luaL_openl:
; Line 64
  00016	6a 01		 push	 1
  00018	50		 push	 eax
  00019	ff 36		 push	 DWORD PTR [esi]
  0001b	57		 push	 edi
  0001c	e8 00 00 00 00	 call	 _luaL_requiref
; Line 65
  00021	6a fe		 push	 -2			; fffffffeH
  00023	57		 push	 edi
  00024	e8 00 00 00 00	 call	 _lua_settop
  00029	8b 46 0c	 mov	 eax, DWORD PTR [esi+12]
  0002c	8d 76 08	 lea	 esi, DWORD PTR [esi+8]
  0002f	83 c4 18	 add	 esp, 24			; 00000018H
  00032	85 c0		 test	 eax, eax
  00034	75 e0		 jne	 SHORT $LL3@luaL_openl
  00036	5f		 pop	 edi
$LN1@luaL_openl:
  00037	5e		 pop	 esi
; Line 67
  00038	5d		 pop	 ebp
  00039	c3		 ret	 0
_luaL_openlibs ENDP
_TEXT	ENDS
END
