; Listing generated by Microsoft (R) Optimizing Compiler Version 18.00.21005.1 

	TITLE	F:\0\luaspq-1.1\luaspq-1.1\src\lmathlibc.c
	.686P
	.XMM
	include listing.inc
	.model	flat

INCLUDELIB MSVCRT
INCLUDELIB OLDNAMES

PUBLIC	_next
_DATA	SEGMENT
_next	DD	01H
_DATA	ENDS
PUBLIC	_factorial
PUBLIC	_CheckDegree
PUBLIC	__sin
PUBLIC	__cos
PUBLIC	__tan
PUBLIC	_sqrt_2
PUBLIC	_sqrt_1
PUBLIC	___pow
PUBLIC	__abs
PUBLIC	_angle_to_radian
PUBLIC	_radian_to_angle
PUBLIC	__floor
PUBLIC	__ceil
PUBLIC	__round
PUBLIC	__exp
PUBLIC	__log10
PUBLIC	__log
PUBLIC	__log2
PUBLIC	__powf
PUBLIC	___rand
PUBLIC	_srand_1
PUBLIC	_srand_2
PUBLIC	___asin
PUBLIC	___acos
PUBLIC	___atan
PUBLIC	___sinh
PUBLIC	___cosh
PUBLIC	___tanh
PUBLIC	___fmod
PUBLIC	___fabs
PUBLIC	_F1
PUBLIC	_F2
PUBLIC	_simpson_2
PUBLIC	_simpson_1
PUBLIC	_asr_4
PUBLIC	_asr_1
PUBLIC	_asr_2
PUBLIC	_asr_3
PUBLIC	_eee
PUBLIC	__Convert
PUBLIC	___isnan
PUBLIC	___isinf
PUBLIC	_____atan2
PUBLIC	___ldexp
PUBLIC	___frexp
PUBLIC	__real@0000000000000000
PUBLIC	__real@3e45798ee2308c3a
PUBLIC	__real@3e7ad7f29abcaf48
PUBLIC	__real@3f000000
PUBLIC	__real@3f50624dd2f1a9fc
PUBLIC	__real@3f800000
PUBLIC	__real@3fe0000000000000
PUBLIC	__real@3fe0000000015fd8
PUBLIC	__real@3ff0000000000000
PUBLIC	__real@3ff921fb54442d18
PUBLIC	__real@4000000000000000
PUBLIC	__real@4005bf0a8b145769
PUBLIC	__real@4008000000000000
PUBLIC	__real@400921fb54442d18
PUBLIC	__real@4010000000000000
PUBLIC	__real@4014000000000000
PUBLIC	__real@4018000000000000
PUBLIC	__real@401c000000000000
PUBLIC	__real@4022000000000000
PUBLIC	__real@4024000000000000
PUBLIC	__real@402e000000000000
PUBLIC	__real@4038000000000000
PUBLIC	__real@404e000000000000
PUBLIC	__real@4056800000000000
PUBLIC	__real@405e000000000000
PUBLIC	__real@4066800000000000
PUBLIC	__real@40ac200000000000
PUBLIC	__real@7ff0000000000000
PUBLIC	__real@8000000000000000
PUBLIC	__real@bff0000000000000
PUBLIC	__real@bff921fb54442d18
PUBLIC	__xmm@3fe638e38e38e38d3e45798ee2308c3a
PUBLIC	__xmm@40000000000000003ff0000000000000
PUBLIC	__xmm@4005ed61bed61bed3e45798ee2308c3a
PUBLIC	__xmm@40240000000000003ff0000000000000
PUBLIC	__xmm@80000000000000008000000000000000
EXTRN	__imp___time64:PROC
EXTRN	__fltused:DWORD
;	COMDAT __xmm@80000000000000008000000000000000
CONST	SEGMENT
__xmm@80000000000000008000000000000000 DB 00H, 00H, 00H, 00H, 00H, 00H, 00H
	DB	080H, 00H, 00H, 00H, 00H, 00H, 00H, 00H, 080H
CONST	ENDS
;	COMDAT __xmm@40240000000000003ff0000000000000
CONST	SEGMENT
__xmm@40240000000000003ff0000000000000 DB 00H, 00H, 00H, 00H, 00H, 00H, 0f0H
	DB	'?', 00H, 00H, 00H, 00H, 00H, 00H, '$@'
CONST	ENDS
;	COMDAT __xmm@4005ed61bed61bed3e45798ee2308c3a
CONST	SEGMENT
__xmm@4005ed61bed61bed3e45798ee2308c3a DB ':', 08cH, '0', 0e2H, 08eH, 'yE'
	DB	'>', 0edH, 01bH, 0d6H, 0beH, 'a', 0edH, 05H, '@'
CONST	ENDS
;	COMDAT __xmm@40000000000000003ff0000000000000
CONST	SEGMENT
__xmm@40000000000000003ff0000000000000 DB 00H, 00H, 00H, 00H, 00H, 00H, 0f0H
	DB	'?', 00H, 00H, 00H, 00H, 00H, 00H, 00H, '@'
CONST	ENDS
;	COMDAT __xmm@3fe638e38e38e38d3e45798ee2308c3a
CONST	SEGMENT
__xmm@3fe638e38e38e38d3e45798ee2308c3a DB ':', 08cH, '0', 0e2H, 08eH, 'yE'
	DB	'>', 08dH, 0e3H, '8', 08eH, 0e3H, '8', 0e6H, '?'
CONST	ENDS
;	COMDAT __real@bff921fb54442d18
CONST	SEGMENT
__real@bff921fb54442d18 DQ 0bff921fb54442d18r	; -1.5708
CONST	ENDS
;	COMDAT __real@bff0000000000000
CONST	SEGMENT
__real@bff0000000000000 DQ 0bff0000000000000r	; -1
CONST	ENDS
;	COMDAT __real@8000000000000000
CONST	SEGMENT
__real@8000000000000000 DQ 08000000000000000r	; -0
CONST	ENDS
;	COMDAT __real@7ff0000000000000
CONST	SEGMENT
__real@7ff0000000000000 DQ 07ff0000000000000r	; 1.#INF
CONST	ENDS
;	COMDAT __real@40ac200000000000
CONST	SEGMENT
__real@40ac200000000000 DQ 040ac200000000000r	; 3600
CONST	ENDS
;	COMDAT __real@4066800000000000
CONST	SEGMENT
__real@4066800000000000 DQ 04066800000000000r	; 180
CONST	ENDS
;	COMDAT __real@405e000000000000
CONST	SEGMENT
__real@405e000000000000 DQ 0405e000000000000r	; 120
CONST	ENDS
;	COMDAT __real@4056800000000000
CONST	SEGMENT
__real@4056800000000000 DQ 04056800000000000r	; 90
CONST	ENDS
;	COMDAT __real@404e000000000000
CONST	SEGMENT
__real@404e000000000000 DQ 0404e000000000000r	; 60
CONST	ENDS
;	COMDAT __real@4038000000000000
CONST	SEGMENT
__real@4038000000000000 DQ 04038000000000000r	; 24
CONST	ENDS
;	COMDAT __real@402e000000000000
CONST	SEGMENT
__real@402e000000000000 DQ 0402e000000000000r	; 15
CONST	ENDS
;	COMDAT __real@4024000000000000
CONST	SEGMENT
__real@4024000000000000 DQ 04024000000000000r	; 10
CONST	ENDS
;	COMDAT __real@4022000000000000
CONST	SEGMENT
__real@4022000000000000 DQ 04022000000000000r	; 9
CONST	ENDS
;	COMDAT __real@401c000000000000
CONST	SEGMENT
__real@401c000000000000 DQ 0401c000000000000r	; 7
CONST	ENDS
;	COMDAT __real@4018000000000000
CONST	SEGMENT
__real@4018000000000000 DQ 04018000000000000r	; 6
CONST	ENDS
;	COMDAT __real@4014000000000000
CONST	SEGMENT
__real@4014000000000000 DQ 04014000000000000r	; 5
CONST	ENDS
;	COMDAT __real@4010000000000000
CONST	SEGMENT
__real@4010000000000000 DQ 04010000000000000r	; 4
CONST	ENDS
;	COMDAT __real@400921fb54442d18
CONST	SEGMENT
__real@400921fb54442d18 DQ 0400921fb54442d18r	; 3.14159
CONST	ENDS
;	COMDAT __real@4008000000000000
CONST	SEGMENT
__real@4008000000000000 DQ 04008000000000000r	; 3
CONST	ENDS
;	COMDAT __real@4005bf0a8b145769
CONST	SEGMENT
__real@4005bf0a8b145769 DQ 04005bf0a8b145769r	; 2.71828
CONST	ENDS
;	COMDAT __real@4000000000000000
CONST	SEGMENT
__real@4000000000000000 DQ 04000000000000000r	; 2
CONST	ENDS
;	COMDAT __real@3ff921fb54442d18
CONST	SEGMENT
__real@3ff921fb54442d18 DQ 03ff921fb54442d18r	; 1.5708
CONST	ENDS
;	COMDAT __real@3ff0000000000000
CONST	SEGMENT
__real@3ff0000000000000 DQ 03ff0000000000000r	; 1
CONST	ENDS
;	COMDAT __real@3fe0000000015fd8
CONST	SEGMENT
__real@3fe0000000015fd8 DQ 03fe0000000015fd8r	; 0.5
CONST	ENDS
;	COMDAT __real@3fe0000000000000
CONST	SEGMENT
__real@3fe0000000000000 DQ 03fe0000000000000r	; 0.5
CONST	ENDS
;	COMDAT __real@3f800000
CONST	SEGMENT
__real@3f800000 DD 03f800000r			; 1
CONST	ENDS
;	COMDAT __real@3f50624dd2f1a9fc
CONST	SEGMENT
__real@3f50624dd2f1a9fc DQ 03f50624dd2f1a9fcr	; 0.001
CONST	ENDS
;	COMDAT __real@3f000000
CONST	SEGMENT
__real@3f000000 DD 03f000000r			; 0.5
CONST	ENDS
;	COMDAT __real@3e7ad7f29abcaf48
CONST	SEGMENT
__real@3e7ad7f29abcaf48 DQ 03e7ad7f29abcaf48r	; 1e-007
CONST	ENDS
;	COMDAT __real@3e45798ee2308c3a
CONST	SEGMENT
__real@3e45798ee2308c3a DQ 03e45798ee2308c3ar	; 1e-008
CONST	ENDS
;	COMDAT __real@0000000000000000
CONST	SEGMENT
__real@0000000000000000 DQ 00000000000000000r	; 0
CONST	ENDS
; Function compile flags: /Ogtp
;	COMDAT ___frexp
_TEXT	SEGMENT
tv195 = -16						; size = 8
tv128 = -16						; size = 8
tv230 = -8						; size = 8
tv192 = 8						; size = 8
_x$ = 8							; size = 8
_exp$ = 16						; size = 4
___frexp PROC						; COMDAT
; File f:\0\luaspq-1.1\luaspq-1.1\src\lmathlibc.c
; Line 466
  00000	55		 push	 ebp
  00001	8b ec		 mov	 ebp, esp
; Line 467
  00003	f2 0f 10 65 08	 movsd	 xmm4, QWORD PTR _x$[ebp]
  00008	83 ec 10	 sub	 esp, 16			; 00000010H
  0000b	66 0f 2e 25 00
	00 00 00	 ucomisd xmm4, QWORD PTR __real@0000000000000000
  00013	9f		 lahf
  00014	f6 c4 44	 test	 ah, 68			; 00000044H
  00017	7a 0f		 jp	 SHORT $LN1@frexp
; Line 469
  00019	8b 45 10	 mov	 eax, DWORD PTR _exp$[ebp]
; Line 470
  0001c	d9 ee		 fldz
  0001e	c7 00 00 00 00
	00		 mov	 DWORD PTR [eax], 0
; Line 474
  00024	8b e5		 mov	 esp, ebp
  00026	5d		 pop	 ebp
  00027	c3		 ret	 0
$LN1@frexp:
; Line 472
  00028	f2 0f 10 1d 00
	00 00 00	 movsd	 xmm3, QWORD PTR __real@3ff0000000000000
  00030	66 0f 28 d4	 movapd	 xmm2, xmm4
  00034	f2 0f 10 0d 00
	00 00 00	 movsd	 xmm1, QWORD PTR __real@4010000000000000
  0003c	f2 0f 5c d3	 subsd	 xmm2, xmm3
  00040	83 ec 20	 sub	 esp, 32			; 00000020H
  00043	66 0f 28 c2	 movapd	 xmm0, xmm2
  00047	f2 0f 59 05 00
	00 00 00	 mulsd	 xmm0, QWORD PTR __real@3fe0000000000000
  0004f	f2 0f 58 c3	 addsd	 xmm0, xmm3
  00053	f2 0f 5e c8	 divsd	 xmm1, xmm0
  00057	66 0f 28 c3	 movapd	 xmm0, xmm3
  0005b	f2 0f 5e c4	 divsd	 xmm0, xmm4
  0005f	f2 0f 58 cb	 addsd	 xmm1, xmm3
  00063	f2 0f 58 c8	 addsd	 xmm1, xmm0
  00067	f2 0f 10 05 00
	00 00 00	 movsd	 xmm0, QWORD PTR __real@3e45798ee2308c3a
  0006f	f2 0f 59 ca	 mulsd	 xmm1, xmm2
  00073	f2 0f 5e 0d 00
	00 00 00	 divsd	 xmm1, QWORD PTR __real@4018000000000000
  0007b	f2 0f 11 4c 24
	18		 movsd	 QWORD PTR [esp+24], xmm1
  00081	f2 0f 11 44 24
	10		 movsd	 QWORD PTR [esp+16], xmm0
  00087	f2 0f 11 64 24
	08		 movsd	 QWORD PTR [esp+8], xmm4
  0008d	f2 0f 11 1c 24	 movsd	 QWORD PTR [esp], xmm3
  00092	e8 00 00 00 00	 call	 _asr_4
  00097	0f 28 05 00 00
	00 00		 movaps	 xmm0, XMMWORD PTR __xmm@3fe638e38e38e38d3e45798ee2308c3a
  0009e	0f 11 44 24 10	 movups	 XMMWORD PTR [esp+16], xmm0
  000a3	0f 28 05 00 00
	00 00		 movaps	 xmm0, XMMWORD PTR __xmm@40000000000000003ff0000000000000
  000aa	dd 5d f8	 fstp	 QWORD PTR tv230[ebp]
  000ad	0f 11 04 24	 movups	 XMMWORD PTR [esp], xmm0
  000b1	e8 00 00 00 00	 call	 _asr_4
  000b6	f2 0f 10 45 f8	 movsd	 xmm0, QWORD PTR tv230[ebp]
  000bb	83 c4 20	 add	 esp, 32			; 00000020H
  000be	dd 5d f0	 fstp	 QWORD PTR tv128[ebp]
  000c1	f2 0f 5e 45 f0	 divsd	 xmm0, QWORD PTR tv128[ebp]
  000c6	8b 45 10	 mov	 eax, DWORD PTR _exp$[ebp]
  000c9	f2 0f 2c c8	 cvttsd2si ecx, xmm0
; Line 473
  000cd	f2 0f 10 05 00
	00 00 00	 movsd	 xmm0, QWORD PTR __real@4000000000000000
  000d5	51		 push	 ecx
  000d6	83 ec 08	 sub	 esp, 8
  000d9	89 08		 mov	 DWORD PTR [eax], ecx
  000db	f2 0f 11 04 24	 movsd	 QWORD PTR [esp], xmm0
  000e0	e8 00 00 00 00	 call	 ___pow
  000e5	f2 0f 10 45 08	 movsd	 xmm0, QWORD PTR _x$[ebp]
  000ea	83 c4 0c	 add	 esp, 12			; 0000000cH
  000ed	dd 5d f0	 fstp	 QWORD PTR tv195[ebp]
  000f0	f2 0f 5c 45 f0	 subsd	 xmm0, QWORD PTR tv195[ebp]
  000f5	f2 0f 11 45 08	 movsd	 QWORD PTR tv192[ebp], xmm0
  000fa	dd 45 08	 fld	 QWORD PTR tv192[ebp]
; Line 474
  000fd	8b e5		 mov	 esp, ebp
  000ff	5d		 pop	 ebp
  00100	c3		 ret	 0
___frexp ENDP
_TEXT	ENDS
; Function compile flags: /Ogtp
;	COMDAT ___ldexp
_TEXT	SEGMENT
tv72 = -8						; size = 8
tv74 = 8						; size = 8
_x$ = 8							; size = 8
_exp$ = 16						; size = 4
___ldexp PROC						; COMDAT
; File f:\0\luaspq-1.1\luaspq-1.1\src\lmathlibc.c
; Line 462
  00000	55		 push	 ebp
  00001	8b ec		 mov	 ebp, esp
  00003	83 ec 08	 sub	 esp, 8
; Line 463
  00006	ff 75 10	 push	 DWORD PTR _exp$[ebp]
  00009	f2 0f 10 05 00
	00 00 00	 movsd	 xmm0, QWORD PTR __real@4000000000000000
  00011	83 ec 08	 sub	 esp, 8
  00014	f2 0f 11 04 24	 movsd	 QWORD PTR [esp], xmm0
  00019	e8 00 00 00 00	 call	 ___pow
  0001e	dd 5d f8	 fstp	 QWORD PTR tv72[ebp]
  00021	f2 0f 10 45 f8	 movsd	 xmm0, QWORD PTR tv72[ebp]
  00026	83 c4 0c	 add	 esp, 12			; 0000000cH
  00029	f2 0f 59 45 08	 mulsd	 xmm0, QWORD PTR _x$[ebp]
  0002e	f2 0f 11 45 08	 movsd	 QWORD PTR tv74[ebp], xmm0
  00033	dd 45 08	 fld	 QWORD PTR tv74[ebp]
; Line 464
  00036	8b e5		 mov	 esp, ebp
  00038	5d		 pop	 ebp
  00039	c3		 ret	 0
___ldexp ENDP
_TEXT	ENDS
; Function compile flags: /Ogtp
;	COMDAT _____atan2
_TEXT	SEGMENT
_sum$ = -8						; size = 8
tv412 = 8						; size = 8
tv406 = 8						; size = 8
_y$ = 8							; size = 8
_x$ = 16						; size = 8
_infNum$ = 24						; size = 4
_____atan2 PROC						; COMDAT
; File f:\0\luaspq-1.1\luaspq-1.1\src\lmathlibc.c
; Line 424
  00000	55		 push	 ebp
  00001	8b ec		 mov	 ebp, esp
  00003	83 ec 08	 sub	 esp, 8
; Line 426
  00006	f2 0f 10 55 08	 movsd	 xmm2, QWORD PTR _y$[ebp]
  0000b	0f 57 f6	 xorps	 xmm6, xmm6
  0000e	f2 0f 10 7d 10	 movsd	 xmm7, QWORD PTR _x$[ebp]
  00013	66 0f 28 e2	 movapd	 xmm4, xmm2
  00017	f2 0f 5e e7	 divsd	 xmm4, xmm7
; Line 427
  0001b	8b 55 18	 mov	 edx, DWORD PTR _infNum$[ebp]
; Line 429
  0001e	33 c9		 xor	 ecx, ecx
  00020	f2 0f 10 2d 00
	00 00 00	 movsd	 xmm5, QWORD PTR __real@3ff0000000000000
  00028	66 0f 28 de	 movapd	 xmm3, xmm6
  0002c	66 0f 6e c2	 movd	 xmm0, edx
  00030	f2 0f 11 5d f8	 movsd	 QWORD PTR _sum$[ebp], xmm3
  00035	f3 0f e6 c0	 cvtdq2pd xmm0, xmm0
  00039	f2 0f 5e e0	 divsd	 xmm4, xmm0
  0003d	83 fa 08	 cmp	 edx, 8
  00040	0f 8c 56 01 00
	00		 jl	 $LC22@atan2
; Line 426
  00046	56		 push	 esi
  00047	57		 push	 edi
  00048	8d 7a f9	 lea	 edi, DWORD PTR [edx-7]
  0004b	8d 71 02	 lea	 esi, DWORD PTR [ecx+2]
  0004e	8b ff		 npad	 2
; Line 429
$LL23@atan2:
; Line 431
  00050	66 0f 6e c1	 movd	 xmm0, ecx
  00054	8d 46 ff	 lea	 eax, DWORD PTR [esi-1]
  00057	f3 0f e6 c0	 cvtdq2pd xmm0, xmm0
; Line 433
  0005b	83 c1 08	 add	 ecx, 8
  0005e	66 0f 28 d5	 movapd	 xmm2, xmm5
  00062	66 0f 28 cd	 movapd	 xmm1, xmm5
  00066	f2 0f 59 c4	 mulsd	 xmm0, xmm4
  0006a	f2 0f 59 c0	 mulsd	 xmm0, xmm0
  0006e	f2 0f 58 c5	 addsd	 xmm0, xmm5
  00072	f2 0f 5e d0	 divsd	 xmm2, xmm0
  00076	66 0f 6e c0	 movd	 xmm0, eax
  0007a	8d 46 01	 lea	 eax, DWORD PTR [esi+1]
  0007d	f3 0f e6 c0	 cvtdq2pd xmm0, xmm0
  00081	f2 0f 59 d4	 mulsd	 xmm2, xmm4
  00085	f2 0f 59 c4	 mulsd	 xmm0, xmm4
  00089	f2 0f 58 d3	 addsd	 xmm2, xmm3
  0008d	66 0f 28 dd	 movapd	 xmm3, xmm5
  00091	f2 0f 59 c0	 mulsd	 xmm0, xmm0
  00095	f2 0f 58 c5	 addsd	 xmm0, xmm5
  00099	f2 0f 5e c8	 divsd	 xmm1, xmm0
  0009d	66 0f 6e c6	 movd	 xmm0, esi
  000a1	f3 0f e6 c0	 cvtdq2pd xmm0, xmm0
  000a5	f2 0f 59 cc	 mulsd	 xmm1, xmm4
  000a9	f2 0f 59 c4	 mulsd	 xmm0, xmm4
  000ad	f2 0f 58 ca	 addsd	 xmm1, xmm2
  000b1	66 0f 28 d5	 movapd	 xmm2, xmm5
  000b5	f2 0f 59 c0	 mulsd	 xmm0, xmm0
  000b9	f2 0f 58 c5	 addsd	 xmm0, xmm5
  000bd	f2 0f 5e d0	 divsd	 xmm2, xmm0
  000c1	66 0f 6e c0	 movd	 xmm0, eax
  000c5	8d 46 02	 lea	 eax, DWORD PTR [esi+2]
  000c8	f3 0f e6 c0	 cvtdq2pd xmm0, xmm0
  000cc	f2 0f 59 d4	 mulsd	 xmm2, xmm4
  000d0	f2 0f 59 c4	 mulsd	 xmm0, xmm4
  000d4	f2 0f 58 d1	 addsd	 xmm2, xmm1
  000d8	66 0f 28 cd	 movapd	 xmm1, xmm5
  000dc	f2 0f 59 c0	 mulsd	 xmm0, xmm0
  000e0	f2 0f 58 c5	 addsd	 xmm0, xmm5
  000e4	f2 0f 5e c8	 divsd	 xmm1, xmm0
  000e8	66 0f 6e c0	 movd	 xmm0, eax
  000ec	8d 46 03	 lea	 eax, DWORD PTR [esi+3]
  000ef	f3 0f e6 c0	 cvtdq2pd xmm0, xmm0
  000f3	f2 0f 59 cc	 mulsd	 xmm1, xmm4
  000f7	f2 0f 59 c4	 mulsd	 xmm0, xmm4
  000fb	f2 0f 58 ca	 addsd	 xmm1, xmm2
  000ff	66 0f 28 d5	 movapd	 xmm2, xmm5
  00103	f2 0f 59 c0	 mulsd	 xmm0, xmm0
  00107	f2 0f 58 c5	 addsd	 xmm0, xmm5
  0010b	f2 0f 5e d0	 divsd	 xmm2, xmm0
  0010f	66 0f 6e c0	 movd	 xmm0, eax
  00113	8d 46 04	 lea	 eax, DWORD PTR [esi+4]
  00116	f3 0f e6 c0	 cvtdq2pd xmm0, xmm0
  0011a	f2 0f 59 d4	 mulsd	 xmm2, xmm4
  0011e	f2 0f 59 c4	 mulsd	 xmm0, xmm4
  00122	f2 0f 58 d1	 addsd	 xmm2, xmm1
  00126	66 0f 28 cd	 movapd	 xmm1, xmm5
  0012a	f2 0f 59 c0	 mulsd	 xmm0, xmm0
  0012e	f2 0f 58 c5	 addsd	 xmm0, xmm5
  00132	f2 0f 5e c8	 divsd	 xmm1, xmm0
  00136	66 0f 6e c0	 movd	 xmm0, eax
  0013a	8d 46 05	 lea	 eax, DWORD PTR [esi+5]
  0013d	f3 0f e6 c0	 cvtdq2pd xmm0, xmm0
  00141	83 c6 08	 add	 esi, 8
  00144	3b cf		 cmp	 ecx, edi
  00146	f2 0f 59 cc	 mulsd	 xmm1, xmm4
  0014a	f2 0f 59 c4	 mulsd	 xmm0, xmm4
  0014e	f2 0f 58 ca	 addsd	 xmm1, xmm2
  00152	66 0f 28 d5	 movapd	 xmm2, xmm5
  00156	f2 0f 59 c0	 mulsd	 xmm0, xmm0
  0015a	f2 0f 58 c5	 addsd	 xmm0, xmm5
  0015e	f2 0f 5e d0	 divsd	 xmm2, xmm0
  00162	66 0f 6e c0	 movd	 xmm0, eax
  00166	f3 0f e6 c0	 cvtdq2pd xmm0, xmm0
  0016a	f2 0f 59 d4	 mulsd	 xmm2, xmm4
  0016e	f2 0f 59 c4	 mulsd	 xmm0, xmm4
  00172	f2 0f 58 d1	 addsd	 xmm2, xmm1
  00176	f2 0f 59 c0	 mulsd	 xmm0, xmm0
  0017a	f2 0f 58 c5	 addsd	 xmm0, xmm5
  0017e	f2 0f 5e d8	 divsd	 xmm3, xmm0
  00182	f2 0f 59 dc	 mulsd	 xmm3, xmm4
  00186	f2 0f 58 da	 addsd	 xmm3, xmm2
  0018a	0f 8c c0 fe ff
	ff		 jl	 $LL23@atan2
  00190	f2 0f 10 55 08	 movsd	 xmm2, QWORD PTR _y$[ebp]
  00195	5f		 pop	 edi
  00196	f2 0f 11 5d f8	 movsd	 QWORD PTR _sum$[ebp], xmm3
  0019b	5e		 pop	 esi
$LC22@atan2:
; Line 429
  0019c	3b ca		 cmp	 ecx, edx
  0019e	7d 2e		 jge	 SHORT $LN21@atan2
$LC18@atan2:
  001a0	66 0f 6e c9	 movd	 xmm1, ecx
; Line 432
  001a4	66 0f 28 c5	 movapd	 xmm0, xmm5
  001a8	f3 0f e6 c9	 cvtdq2pd xmm1, xmm1
  001ac	41		 inc	 ecx
  001ad	f2 0f 59 cc	 mulsd	 xmm1, xmm4
  001b1	f2 0f 59 c9	 mulsd	 xmm1, xmm1
  001b5	f2 0f 58 cd	 addsd	 xmm1, xmm5
  001b9	f2 0f 5e c1	 divsd	 xmm0, xmm1
  001bd	f2 0f 59 c4	 mulsd	 xmm0, xmm4
; Line 433
  001c1	f2 0f 58 d8	 addsd	 xmm3, xmm0
  001c5	3b ca		 cmp	 ecx, edx
  001c7	7c d7		 jl	 SHORT $LC18@atan2
  001c9	f2 0f 11 5d f8	 movsd	 QWORD PTR _sum$[ebp], xmm3
$LN21@atan2:
; Line 436
  001ce	66 0f 2f fe	 comisd	 xmm7, xmm6
  001d2	76 07		 jbe	 SHORT $LN10@atan2
; Line 438
  001d4	dd 45 f8	 fld	 QWORD PTR _sum$[ebp]
; Line 460
  001d7	8b e5		 mov	 esp, ebp
  001d9	5d		 pop	 ebp
  001da	c3		 ret	 0
$LN10@atan2:
; Line 440
  001db	66 0f 2f d6	 comisd	 xmm2, xmm6
  001df	72 1a		 jb	 SHORT $LN8@atan2
  001e1	66 0f 2f f7	 comisd	 xmm6, xmm7
  001e5	76 14		 jbe	 SHORT $LN8@atan2
; Line 442
  001e7	f2 0f 58 1d 00
	00 00 00	 addsd	 xmm3, QWORD PTR __real@400921fb54442d18
  001ef	f2 0f 11 5d 08	 movsd	 QWORD PTR tv412[ebp], xmm3
  001f4	dd 45 08	 fld	 QWORD PTR tv412[ebp]
; Line 460
  001f7	8b e5		 mov	 esp, ebp
  001f9	5d		 pop	 ebp
  001fa	c3		 ret	 0
$LN8@atan2:
; Line 444
  001fb	66 0f 2f f2	 comisd	 xmm6, xmm2
  001ff	76 1a		 jbe	 SHORT $LN6@atan2
  00201	66 0f 2f f7	 comisd	 xmm6, xmm7
  00205	76 14		 jbe	 SHORT $LN6@atan2
; Line 446
  00207	f2 0f 5c 1d 00
	00 00 00	 subsd	 xmm3, QWORD PTR __real@400921fb54442d18
  0020f	f2 0f 11 5d 08	 movsd	 QWORD PTR tv406[ebp], xmm3
  00214	dd 45 08	 fld	 QWORD PTR tv406[ebp]
; Line 460
  00217	8b e5		 mov	 esp, ebp
  00219	5d		 pop	 ebp
  0021a	c3		 ret	 0
$LN6@atan2:
; Line 448
  0021b	66 0f 2f d6	 comisd	 xmm2, xmm6
  0021f	76 14		 jbe	 SHORT $LN4@atan2
  00221	66 0f 2e fe	 ucomisd xmm7, xmm6
  00225	9f		 lahf
  00226	f6 c4 44	 test	 ah, 68			; 00000044H
  00229	7a 0a		 jp	 SHORT $LN4@atan2
; Line 450
  0022b	dd 05 00 00 00
	00		 fld	 QWORD PTR __real@3ff921fb54442d18
; Line 460
  00231	8b e5		 mov	 esp, ebp
  00233	5d		 pop	 ebp
  00234	c3		 ret	 0
$LN4@atan2:
; Line 452
  00235	66 0f 2f f2	 comisd	 xmm6, xmm2
  00239	76 14		 jbe	 SHORT $LN2@atan2
  0023b	66 0f 2e fe	 ucomisd xmm7, xmm6
  0023f	9f		 lahf
  00240	f6 c4 44	 test	 ah, 68			; 00000044H
  00243	7a 0a		 jp	 SHORT $LN2@atan2
; Line 454
  00245	dd 05 00 00 00
	00		 fld	 QWORD PTR __real@bff921fb54442d18
; Line 460
  0024b	8b e5		 mov	 esp, ebp
  0024d	5d		 pop	 ebp
  0024e	c3		 ret	 0
$LN2@atan2:
; Line 458
  0024f	d9 ee		 fldz
; Line 460
  00251	8b e5		 mov	 esp, ebp
  00253	5d		 pop	 ebp
  00254	c3		 ret	 0
_____atan2 ENDP
_TEXT	ENDS
; Function compile flags: /Ogtp
;	COMDAT ___isinf
_TEXT	SEGMENT
_u$ = 8							; size = 8
_d$ = 8							; size = 8
___isinf PROC						; COMDAT
; File f:\0\luaspq-1.1\luaspq-1.1\src\lmathlibc.c
; Line 414
  00000	55		 push	 ebp
  00001	8b ec		 mov	 ebp, esp
; Line 420
  00003	f2 0f 10 45 08	 movsd	 xmm0, QWORD PTR _d$[ebp]
  00008	f2 0f 11 45 08	 movsd	 QWORD PTR _u$[ebp], xmm0
; Line 421
  0000d	8b 4d 08	 mov	 ecx, DWORD PTR _u$[ebp]
  00010	8b 45 0c	 mov	 eax, DWORD PTR _u$[ebp+4]
  00013	85 c9		 test	 ecx, ecx
  00015	75 1e		 jne	 SHORT $LN3@isinf
  00017	3d 00 00 f0 7f	 cmp	 eax, 2146435072		; 7ff00000H
  0001c	75 07		 jne	 SHORT $LN5@isinf
  0001e	b8 01 00 00 00	 mov	 eax, 1
; Line 422
  00023	5d		 pop	 ebp
  00024	c3		 ret	 0
$LN5@isinf:
; Line 421
  00025	85 c9		 test	 ecx, ecx
  00027	75 0c		 jne	 SHORT $LN3@isinf
  00029	3d 00 00 f0 ff	 cmp	 eax, -1048576		; fff00000H
  0002e	75 05		 jne	 SHORT $LN3@isinf
  00030	83 c8 ff	 or	 eax, -1
; Line 422
  00033	5d		 pop	 ebp
  00034	c3		 ret	 0
$LN3@isinf:
; Line 421
  00035	33 c0		 xor	 eax, eax
; Line 422
  00037	5d		 pop	 ebp
  00038	c3		 ret	 0
___isinf ENDP
_TEXT	ENDS
; Function compile flags: /Ogtp
;	COMDAT ___isnan
_TEXT	SEGMENT
_u$ = 8							; size = 8
_d$ = 8							; size = 8
___isnan PROC						; COMDAT
; File f:\0\luaspq-1.1\luaspq-1.1\src\lmathlibc.c
; Line 404
  00000	55		 push	 ebp
  00001	8b ec		 mov	 ebp, esp
; Line 410
  00003	f2 0f 10 45 08	 movsd	 xmm0, QWORD PTR _d$[ebp]
  00008	f2 0f 11 45 08	 movsd	 QWORD PTR _u$[ebp], xmm0
; Line 411
  0000d	8b 4d 08	 mov	 ecx, DWORD PTR _u$[ebp]
  00010	8b 45 0c	 mov	 eax, DWORD PTR _u$[ebp+4]
  00013	85 c9		 test	 ecx, ecx
  00015	75 24		 jne	 SHORT $LN7@isnan
  00017	3d 00 00 f8 7f	 cmp	 eax, 2146959360		; 7ff80000H
  0001c	74 16		 je	 SHORT $LN3@isnan
  0001e	85 c9		 test	 ecx, ecx
  00020	75 19		 jne	 SHORT $LN7@isnan
  00022	3d 00 00 f0 7f	 cmp	 eax, 2146435072		; 7ff00000H
  00027	74 0b		 je	 SHORT $LN3@isnan
  00029	85 c9		 test	 ecx, ecx
  0002b	75 0e		 jne	 SHORT $LN7@isnan
  0002d	3d 00 00 f8 ff	 cmp	 eax, -524288		; fff80000H
  00032	75 07		 jne	 SHORT $LN7@isnan
$LN3@isnan:
  00034	b8 01 00 00 00	 mov	 eax, 1
; Line 412
  00039	5d		 pop	 ebp
  0003a	c3		 ret	 0
$LN7@isnan:
; Line 411
  0003b	33 c0		 xor	 eax, eax
; Line 412
  0003d	5d		 pop	 ebp
  0003e	c3		 ret	 0
___isnan ENDP
_TEXT	ENDS
; Function compile flags: /Ogtp
;	COMDAT __Convert
_TEXT	SEGMENT
tv192 = 8						; size = 8
_t$ = 8							; size = 8
__Convert PROC						; COMDAT
; File f:\0\luaspq-1.1\luaspq-1.1\src\lmathlibc.c
; Line 390
  00000	55		 push	 ebp
  00001	8b ec		 mov	 ebp, esp
; Line 392
  00003	f2 0f 10 45 08	 movsd	 xmm0, QWORD PTR _t$[ebp]
  00008	0f 57 db	 xorps	 xmm3, xmm3
  0000b	66 0f 2f c3	 comisd	 xmm0, xmm3
  0000f	f2 0f 2c c0	 cvttsd2si eax, xmm0
  00013	73 01		 jae	 SHORT $LN3@Convert
  00015	48		 dec	 eax
$LN3@Convert:
; Line 393
  00016	f2 0f 10 25 00
	00 00 00	 movsd	 xmm4, QWORD PTR __real@404e000000000000
  0001e	66 0f 6e d0	 movd	 xmm2, eax
  00022	f3 0f e6 d2	 cvtdq2pd xmm2, xmm2
  00026	f2 0f 5c c2	 subsd	 xmm0, xmm2
  0002a	f2 0f 59 c4	 mulsd	 xmm0, xmm4
; Line 394
  0002e	66 0f 2f c3	 comisd	 xmm0, xmm3
  00032	f2 0f 2c c0	 cvttsd2si eax, xmm0
  00036	73 01		 jae	 SHORT $LN7@Convert
  00038	48		 dec	 eax
$LN7@Convert:
; Line 396
  00039	66 0f 2f da	 comisd	 xmm3, xmm2
  0003d	f2 0f 10 35 00
	00 00 00	 movsd	 xmm6, QWORD PTR __real@bff0000000000000
  00045	66 0f 6e c8	 movd	 xmm1, eax
  00049	f3 0f e6 c9	 cvtdq2pd xmm1, xmm1
  0004d	f2 0f 5c c1	 subsd	 xmm0, xmm1
  00051	f2 0f 59 c4	 mulsd	 xmm0, xmm4
  00055	76 06		 jbe	 SHORT $LN14@Convert
  00057	66 0f 28 ee	 movapd	 xmm5, xmm6
  0005b	eb 08		 jmp	 SHORT $LN15@Convert
$LN14@Convert:
  0005d	f2 0f 10 2d 00
	00 00 00	 movsd	 xmm5, QWORD PTR __real@3ff0000000000000
$LN15@Convert:
  00065	66 0f 2f da	 comisd	 xmm3, xmm2
  00069	76 04		 jbe	 SHORT $LN11@Convert
  0006b	f2 0f 59 d6	 mulsd	 xmm2, xmm6
$LN11@Convert:
  0006f	f2 0f 5e 05 00
	00 00 00	 divsd	 xmm0, QWORD PTR __real@40ac200000000000
  00077	f2 0f 5e cc	 divsd	 xmm1, xmm4
  0007b	f2 0f 58 ca	 addsd	 xmm1, xmm2
  0007f	f2 0f 58 c8	 addsd	 xmm1, xmm0
  00083	f2 0f 59 0d 00
	00 00 00	 mulsd	 xmm1, QWORD PTR __real@400921fb54442d18
  0008b	f2 0f 59 cd	 mulsd	 xmm1, xmm5
  0008f	f2 0f 5e 0d 00
	00 00 00	 divsd	 xmm1, QWORD PTR __real@4066800000000000
; Line 397
  00097	f2 0f 11 4d 08	 movsd	 QWORD PTR tv192[ebp], xmm1
  0009c	dd 45 08	 fld	 QWORD PTR tv192[ebp]
; Line 398
  0009f	5d		 pop	 ebp
  000a0	c3		 ret	 0
__Convert ENDP
_TEXT	ENDS
; Function compile flags: /Ogtp
;	COMDAT _eee
_TEXT	SEGMENT
_result$1$ = -16					; size = 8
tv200 = -8						; size = 8
_tmp$1 = -8						; size = 8
tv228 = 8						; size = 8
tv207 = 8						; size = 8
_ee$2 = 8						; size = 8
_x$ = 8							; size = 8
_eee	PROC						; COMDAT
; File f:\0\luaspq-1.1\luaspq-1.1\src\lmathlibc.c
; Line 248
  00000	55		 push	 ebp
  00001	8b ec		 mov	 ebp, esp
; Line 249
  00003	f2 0f 10 45 08	 movsd	 xmm0, QWORD PTR _x$[ebp]
  00008	83 ec 10	 sub	 esp, 16			; 00000010H
  0000b	66 0f 2f 05 00
	00 00 00	 comisd	 xmm0, QWORD PTR __real@3f50624dd2f1a9fc
  00013	76 30		 jbe	 SHORT $LN1@eee
; Line 251
  00015	f2 0f 59 05 00
	00 00 00	 mulsd	 xmm0, QWORD PTR __real@3fe0000000000000
  0001d	83 ec 08	 sub	 esp, 8
  00020	f2 0f 11 04 24	 movsd	 QWORD PTR [esp], xmm0
  00025	e8 00 00 00 00	 call	 _eee
  0002a	dd 5d 08	 fstp	 QWORD PTR _ee$2[ebp]
; Line 252
  0002d	f2 0f 10 45 08	 movsd	 xmm0, QWORD PTR _ee$2[ebp]
  00032	83 c4 08	 add	 esp, 8
  00035	f2 0f 59 c0	 mulsd	 xmm0, xmm0
  00039	f2 0f 11 45 08	 movsd	 QWORD PTR tv228[ebp], xmm0
  0003e	dd 45 08	 fld	 QWORD PTR tv228[ebp]
; Line 255
  00041	8b e5		 mov	 esp, ebp
  00043	5d		 pop	 ebp
  00044	c3		 ret	 0
$LN1@eee:
; Line 254
  00045	6a 01		 push	 1
  00047	83 ec 08	 sub	 esp, 8
  0004a	f2 0f 11 04 24	 movsd	 QWORD PTR [esp], xmm0
  0004f	e8 00 00 00 00	 call	 ___pow
  00054	f2 0f 10 55 08	 movsd	 xmm2, QWORD PTR _x$[ebp]
  00059	83 c4 0c	 add	 esp, 12			; 0000000cH
  0005c	dd 5d f8	 fstp	 QWORD PTR _tmp$1[ebp]
  0005f	f2 0f 10 4d f8	 movsd	 xmm1, QWORD PTR _tmp$1[ebp]
  00064	f2 0f 59 ca	 mulsd	 xmm1, xmm2
  00068	6a 02		 push	 2
  0006a	83 ec 08	 sub	 esp, 8
  0006d	f2 0f 59 4d f8	 mulsd	 xmm1, QWORD PTR _tmp$1[ebp]
  00072	f2 0f 11 14 24	 movsd	 QWORD PTR [esp], xmm2
  00077	f2 0f 11 4d f0	 movsd	 QWORD PTR _result$1$[ebp], xmm1
  0007c	e8 00 00 00 00	 call	 ___pow
  00081	f2 0f 10 5d 08	 movsd	 xmm3, QWORD PTR _x$[ebp]
  00086	83 c4 0c	 add	 esp, 12			; 0000000cH
  00089	dd 5d f8	 fstp	 QWORD PTR tv200[ebp]
  0008c	f2 0f 10 45 f8	 movsd	 xmm0, QWORD PTR tv200[ebp]
  00091	66 0f 28 d0	 movapd	 xmm2, xmm0
  00095	66 0f 28 c8	 movapd	 xmm1, xmm0
  00099	f2 0f 59 d0	 mulsd	 xmm2, xmm0
  0009d	f2 0f 59 cb	 mulsd	 xmm1, xmm3
  000a1	f2 0f 5e 15 00
	00 00 00	 divsd	 xmm2, QWORD PTR __real@4038000000000000
  000a9	f2 0f 59 c8	 mulsd	 xmm1, xmm0
  000ad	0f 28 c3	 movaps	 xmm0, xmm3
  000b0	f2 0f 59 c3	 mulsd	 xmm0, xmm3
  000b4	f2 0f 58 1d 00
	00 00 00	 addsd	 xmm3, QWORD PTR __real@3ff0000000000000
  000bc	f2 0f 5e 0d 00
	00 00 00	 divsd	 xmm1, QWORD PTR __real@405e000000000000
  000c4	f2 0f 59 05 00
	00 00 00	 mulsd	 xmm0, QWORD PTR __real@3fe0000000000000
  000cc	f2 0f 58 c3	 addsd	 xmm0, xmm3
  000d0	f2 0f 58 45 f0	 addsd	 xmm0, QWORD PTR _result$1$[ebp]
  000d5	f2 0f 58 c2	 addsd	 xmm0, xmm2
  000d9	f2 0f 58 c1	 addsd	 xmm0, xmm1
  000dd	f2 0f 11 45 08	 movsd	 QWORD PTR tv207[ebp], xmm0
  000e2	dd 45 08	 fld	 QWORD PTR tv207[ebp]
; Line 255
  000e5	8b e5		 mov	 esp, ebp
  000e7	5d		 pop	 ebp
  000e8	c3		 ret	 0
_eee	ENDP
_TEXT	ENDS
; Function compile flags: /Ogtp
;	COMDAT _asr_3
_TEXT	SEGMENT
_a$ = 8							; size = 8
_b$ = 16						; size = 8
_eps$ = 24						; size = 8
_flag$ = 32						; size = 4
_asr_3	PROC						; COMDAT
; File f:\0\luaspq-1.1\luaspq-1.1\src\lmathlibc.c
; Line 318
  00000	55		 push	 ebp
  00001	8b ec		 mov	 ebp, esp
; Line 319
  00003	8b 45 20	 mov	 eax, DWORD PTR _flag$[ebp]
  00006	f2 0f 10 45 10	 movsd	 xmm0, QWORD PTR _b$[ebp]
  0000b	50		 push	 eax
  0000c	50		 push	 eax
  0000d	83 ec 10	 sub	 esp, 16			; 00000010H
  00010	f2 0f 11 44 24
	08		 movsd	 QWORD PTR [esp+8], xmm0
  00016	f2 0f 10 45 08	 movsd	 xmm0, QWORD PTR _a$[ebp]
  0001b	f2 0f 11 04 24	 movsd	 QWORD PTR [esp], xmm0
  00020	e8 00 00 00 00	 call	 _simpson_1
  00025	f2 0f 10 45 18	 movsd	 xmm0, QWORD PTR _eps$[ebp]
  0002a	83 ec 0c	 sub	 esp, 12			; 0000000cH
  0002d	dd 5c 24 18	 fstp	 QWORD PTR [esp+24]
  00031	f2 0f 11 44 24
	10		 movsd	 QWORD PTR [esp+16], xmm0
  00037	f2 0f 10 45 10	 movsd	 xmm0, QWORD PTR _b$[ebp]
  0003c	f2 0f 11 44 24
	08		 movsd	 QWORD PTR [esp+8], xmm0
  00042	f2 0f 10 45 08	 movsd	 xmm0, QWORD PTR _a$[ebp]
  00047	f2 0f 11 04 24	 movsd	 QWORD PTR [esp], xmm0
  0004c	e8 00 00 00 00	 call	 _asr_2
  00051	83 c4 24	 add	 esp, 36			; 00000024H
; Line 320
  00054	5d		 pop	 ebp
  00055	c3		 ret	 0
_asr_3	ENDP
_TEXT	ENDS
; Function compile flags: /Ogtp
;	COMDAT _asr_2
_TEXT	SEGMENT
_R$ = -24						; size = 8
_L$ = -16						; size = 8
_c$1$ = -8						; size = 8
_a$ = 8							; size = 8
tv196 = 16						; size = 8
tv150 = 16						; size = 8
tv66 = 16						; size = 8
_b$ = 16						; size = 8
tv194 = 24						; size = 8
_eps$ = 24						; size = 8
_A$ = 32						; size = 8
_flag$ = 40						; size = 4
_asr_2	PROC						; COMDAT
; File f:\0\luaspq-1.1\luaspq-1.1\src\lmathlibc.c
; Line 304
  00000	55		 push	 ebp
  00001	8b ec		 mov	 ebp, esp
  00003	83 ec 18	 sub	 esp, 24			; 00000018H
; Line 305
  00006	f2 0f 10 4d 08	 movsd	 xmm1, QWORD PTR _a$[ebp]
  0000b	f2 0f 10 45 10	 movsd	 xmm0, QWORD PTR _b$[ebp]
  00010	f2 0f 5c c1	 subsd	 xmm0, xmm1
  00014	56		 push	 esi
; Line 306
  00015	8b 75 28	 mov	 esi, DWORD PTR _flag$[ebp]
  00018	56		 push	 esi
  00019	83 ec 10	 sub	 esp, 16			; 00000010H
  0001c	f2 0f 59 05 00
	00 00 00	 mulsd	 xmm0, QWORD PTR __real@3fe0000000000000
  00024	f2 0f 58 c1	 addsd	 xmm0, xmm1
  00028	f2 0f 11 44 24
	08		 movsd	 QWORD PTR [esp+8], xmm0
  0002e	f2 0f 11 45 f8	 movsd	 QWORD PTR _c$1$[ebp], xmm0
  00033	f2 0f 11 0c 24	 movsd	 QWORD PTR [esp], xmm1
  00038	e8 00 00 00 00	 call	 _simpson_1
  0003d	f2 0f 10 45 10	 movsd	 xmm0, QWORD PTR _b$[ebp]
  00042	83 c4 14	 add	 esp, 20			; 00000014H
  00045	dd 5d f0	 fstp	 QWORD PTR _L$[ebp]
  00048	56		 push	 esi
  00049	83 ec 10	 sub	 esp, 16			; 00000010H
  0004c	f2 0f 11 44 24
	08		 movsd	 QWORD PTR [esp+8], xmm0
  00052	f2 0f 10 45 f8	 movsd	 xmm0, QWORD PTR _c$1$[ebp]
  00057	f2 0f 11 04 24	 movsd	 QWORD PTR [esp], xmm0
  0005c	e8 00 00 00 00	 call	 _simpson_1
  00061	dd 5d e8	 fstp	 QWORD PTR _R$[ebp]
; Line 307
  00064	f2 0f 10 75 e8	 movsd	 xmm6, QWORD PTR _R$[ebp]
  00069	83 c4 14	 add	 esp, 20			; 00000014H
  0006c	66 0f 28 e6	 movapd	 xmm4, xmm6
  00070	f2 0f 58 65 f0	 addsd	 xmm4, QWORD PTR _L$[ebp]
  00075	66 0f 28 cc	 movapd	 xmm1, xmm4
  00079	f2 0f 5c 4d 20	 subsd	 xmm1, QWORD PTR _A$[ebp]
  0007e	66 0f 2f 0d 00
	00 00 00	 comisd	 xmm1, QWORD PTR __real@0000000000000000
  00086	66 0f 28 d1	 movapd	 xmm2, xmm1
  0008a	77 08		 ja	 SHORT $LN7@asr_2
  0008c	66 0f 57 15 00
	00 00 00	 xorpd	 xmm2, QWORD PTR __xmm@80000000000000008000000000000000
$LN7@asr_2:
  00094	f2 0f 10 6d 18	 movsd	 xmm5, QWORD PTR _eps$[ebp]
  00099	f2 0f 10 1d 00
	00 00 00	 movsd	 xmm3, QWORD PTR __real@402e000000000000
  000a1	66 0f 28 c5	 movapd	 xmm0, xmm5
  000a5	f2 0f 59 c3	 mulsd	 xmm0, xmm3
  000a9	66 0f 2f c2	 comisd	 xmm0, xmm2
  000ad	72 15		 jb	 SHORT $LN1@asr_2
; Line 309
  000af	f2 0f 5e cb	 divsd	 xmm1, xmm3
  000b3	5e		 pop	 esi
  000b4	f2 0f 58 cc	 addsd	 xmm1, xmm4
  000b8	f2 0f 11 4d 10	 movsd	 QWORD PTR tv66[ebp], xmm1
  000bd	dd 45 10	 fld	 QWORD PTR tv66[ebp]
; Line 312
  000c0	8b e5		 mov	 esp, ebp
  000c2	5d		 pop	 ebp
  000c3	c3		 ret	 0
$LN1@asr_2:
; Line 311
  000c4	f2 0f 59 2d 00
	00 00 00	 mulsd	 xmm5, QWORD PTR __real@3fe0000000000000
  000cc	56		 push	 esi
  000cd	f2 0f 10 45 10	 movsd	 xmm0, QWORD PTR _b$[ebp]
  000d2	83 ec 20	 sub	 esp, 32			; 00000020H
  000d5	f2 0f 11 6d 18	 movsd	 QWORD PTR _eps$[ebp], xmm5
  000da	f2 0f 11 74 24
	18		 movsd	 QWORD PTR [esp+24], xmm6
  000e0	f2 0f 11 6c 24
	10		 movsd	 QWORD PTR [esp+16], xmm5
  000e6	f2 0f 11 44 24
	08		 movsd	 QWORD PTR [esp+8], xmm0
  000ec	f2 0f 10 45 f8	 movsd	 xmm0, QWORD PTR _c$1$[ebp]
  000f1	f2 0f 11 04 24	 movsd	 QWORD PTR [esp], xmm0
  000f6	e8 00 00 00 00	 call	 _asr_2
  000fb	f2 0f 10 45 f0	 movsd	 xmm0, QWORD PTR _L$[ebp]
  00100	83 c4 24	 add	 esp, 36			; 00000024H
  00103	dd 5d 10	 fstp	 QWORD PTR tv150[ebp]
  00106	56		 push	 esi
  00107	83 ec 20	 sub	 esp, 32			; 00000020H
  0010a	f2 0f 11 44 24
	18		 movsd	 QWORD PTR [esp+24], xmm0
  00110	f2 0f 10 45 18	 movsd	 xmm0, QWORD PTR _eps$[ebp]
  00115	f2 0f 11 44 24
	10		 movsd	 QWORD PTR [esp+16], xmm0
  0011b	f2 0f 10 45 f8	 movsd	 xmm0, QWORD PTR _c$1$[ebp]
  00120	f2 0f 11 44 24
	08		 movsd	 QWORD PTR [esp+8], xmm0
  00126	f2 0f 10 45 08	 movsd	 xmm0, QWORD PTR _a$[ebp]
  0012b	f2 0f 11 04 24	 movsd	 QWORD PTR [esp], xmm0
  00130	e8 00 00 00 00	 call	 _asr_2
  00135	f2 0f 10 45 10	 movsd	 xmm0, QWORD PTR tv150[ebp]
  0013a	83 c4 24	 add	 esp, 36			; 00000024H
  0013d	dd 5d 18	 fstp	 QWORD PTR tv194[ebp]
  00140	f2 0f 58 45 18	 addsd	 xmm0, QWORD PTR tv194[ebp]
  00145	5e		 pop	 esi
  00146	f2 0f 11 45 10	 movsd	 QWORD PTR tv196[ebp], xmm0
  0014b	dd 45 10	 fld	 QWORD PTR tv196[ebp]
; Line 312
  0014e	8b e5		 mov	 esp, ebp
  00150	5d		 pop	 ebp
  00151	c3		 ret	 0
_asr_2	ENDP
_TEXT	ENDS
; Function compile flags: /Ogtp
;	COMDAT _asr_1
_TEXT	SEGMENT
_a$ = 8							; size = 8
_b$ = 16						; size = 8
_eps$ = 24						; size = 8
_asr_1	PROC						; COMDAT
; File f:\0\luaspq-1.1\luaspq-1.1\src\lmathlibc.c
; Line 314
  00000	55		 push	 ebp
  00001	8b ec		 mov	 ebp, esp
; Line 315
  00003	f2 0f 10 65 10	 movsd	 xmm4, QWORD PTR _b$[ebp]
  00008	83 ec 20	 sub	 esp, 32			; 00000020H
  0000b	f2 0f 10 6d 08	 movsd	 xmm5, QWORD PTR _a$[ebp]
  00010	66 0f 28 dc	 movapd	 xmm3, xmm4
  00014	f2 0f 10 15 00
	00 00 00	 movsd	 xmm2, QWORD PTR __real@4010000000000000
  0001c	f2 0f 5c dd	 subsd	 xmm3, xmm5
  00020	f2 0f 10 0d 00
	00 00 00	 movsd	 xmm1, QWORD PTR __real@3ff0000000000000
  00028	66 0f 28 c3	 movapd	 xmm0, xmm3
  0002c	f2 0f 59 05 00
	00 00 00	 mulsd	 xmm0, QWORD PTR __real@3fe0000000000000
  00034	f2 0f 58 c5	 addsd	 xmm0, xmm5
  00038	f2 0f 5e d0	 divsd	 xmm2, xmm0
  0003c	66 0f 28 c1	 movapd	 xmm0, xmm1
  00040	f2 0f 5e c5	 divsd	 xmm0, xmm5
  00044	f2 0f 5e cc	 divsd	 xmm1, xmm4
  00048	f2 0f 58 d0	 addsd	 xmm2, xmm0
  0004c	f2 0f 10 45 18	 movsd	 xmm0, QWORD PTR _eps$[ebp]
  00051	f2 0f 58 d1	 addsd	 xmm2, xmm1
  00055	f2 0f 59 d3	 mulsd	 xmm2, xmm3
  00059	f2 0f 5e 15 00
	00 00 00	 divsd	 xmm2, QWORD PTR __real@4018000000000000
  00061	f2 0f 11 54 24
	18		 movsd	 QWORD PTR [esp+24], xmm2
  00067	f2 0f 11 44 24
	10		 movsd	 QWORD PTR [esp+16], xmm0
  0006d	f2 0f 11 64 24
	08		 movsd	 QWORD PTR [esp+8], xmm4
  00073	f2 0f 11 2c 24	 movsd	 QWORD PTR [esp], xmm5
  00078	e8 00 00 00 00	 call	 _asr_4
  0007d	83 c4 20	 add	 esp, 32			; 00000020H
; Line 316
  00080	5d		 pop	 ebp
  00081	c3		 ret	 0
_asr_1	ENDP
_TEXT	ENDS
; Function compile flags: /Ogtp
;	COMDAT _asr_4
_TEXT	SEGMENT
_c$1$ = -24						; size = 8
_L$1$ = -16						; size = 8
tv190 = -8						; size = 8
_a$ = 8							; size = 8
tv233 = 16						; size = 8
tv196 = 16						; size = 8
tv169 = 16						; size = 8
_b$ = 16						; size = 8
tv198 = 24						; size = 8
_eps$ = 24						; size = 8
_A$ = 32						; size = 8
_asr_4	PROC						; COMDAT
; File f:\0\luaspq-1.1\luaspq-1.1\src\lmathlibc.c
; Line 294
  00000	55		 push	 ebp
  00001	8b ec		 mov	 ebp, esp
  00003	83 ec 18	 sub	 esp, 24			; 00000018H
; Line 295
  00006	f2 0f 10 55 08	 movsd	 xmm2, QWORD PTR _a$[ebp]
  0000b	f2 0f 10 7d 10	 movsd	 xmm7, QWORD PTR _b$[ebp]
  00010	f2 0f 5c fa	 subsd	 xmm7, xmm2
; Line 296
  00014	f2 0f 10 2d 00
	00 00 00	 movsd	 xmm5, QWORD PTR __real@4010000000000000
  0001c	f2 0f 10 25 00
	00 00 00	 movsd	 xmm4, QWORD PTR __real@3ff0000000000000
  00024	66 0f 28 f5	 movapd	 xmm6, xmm5
  00028	66 0f 28 dc	 movapd	 xmm3, xmm4
  0002c	f2 0f 59 3d 00
	00 00 00	 mulsd	 xmm7, QWORD PTR __real@3fe0000000000000
  00034	f2 0f 58 fa	 addsd	 xmm7, xmm2
  00038	66 0f 28 cf	 movapd	 xmm1, xmm7
  0003c	f2 0f 11 7d e8	 movsd	 QWORD PTR _c$1$[ebp], xmm7
  00041	f2 0f 5c ca	 subsd	 xmm1, xmm2
  00045	f2 0f 5e df	 divsd	 xmm3, xmm7
  00049	66 0f 28 c1	 movapd	 xmm0, xmm1
  0004d	f2 0f 59 05 00
	00 00 00	 mulsd	 xmm0, QWORD PTR __real@3fe0000000000000
  00055	f2 0f 58 c2	 addsd	 xmm0, xmm2
  00059	f2 0f 5e f0	 divsd	 xmm6, xmm0
  0005d	66 0f 28 c4	 movapd	 xmm0, xmm4
  00061	f2 0f 5e c2	 divsd	 xmm0, xmm2
  00065	f2 0f 5e 65 10	 divsd	 xmm4, QWORD PTR _b$[ebp]
  0006a	f2 0f 58 f0	 addsd	 xmm6, xmm0
  0006e	f2 0f 58 f3	 addsd	 xmm6, xmm3
  00072	f2 0f 59 f1	 mulsd	 xmm6, xmm1
  00076	f2 0f 10 4d 10	 movsd	 xmm1, QWORD PTR _b$[ebp]
  0007b	f2 0f 5c cf	 subsd	 xmm1, xmm7
  0007f	f2 0f 5e 35 00
	00 00 00	 divsd	 xmm6, QWORD PTR __real@4018000000000000
  00087	66 0f 28 c1	 movapd	 xmm0, xmm1
  0008b	f2 0f 59 05 00
	00 00 00	 mulsd	 xmm0, QWORD PTR __real@3fe0000000000000
  00093	f2 0f 11 75 f0	 movsd	 QWORD PTR _L$1$[ebp], xmm6
  00098	f2 0f 58 c7	 addsd	 xmm0, xmm7
  0009c	f2 0f 5e e8	 divsd	 xmm5, xmm0
  000a0	f2 0f 58 eb	 addsd	 xmm5, xmm3
  000a4	f2 0f 58 ec	 addsd	 xmm5, xmm4
  000a8	f2 0f 59 e9	 mulsd	 xmm5, xmm1
  000ac	f2 0f 5e 2d 00
	00 00 00	 divsd	 xmm5, QWORD PTR __real@4018000000000000
; Line 297
  000b4	66 0f 28 c5	 movapd	 xmm0, xmm5
  000b8	f2 0f 58 c6	 addsd	 xmm0, xmm6
  000bc	66 0f 28 c8	 movapd	 xmm1, xmm0
  000c0	f2 0f 11 45 f8	 movsd	 QWORD PTR tv190[ebp], xmm0
  000c5	f2 0f 5c 4d 20	 subsd	 xmm1, QWORD PTR _A$[ebp]
  000ca	66 0f 2f 0d 00
	00 00 00	 comisd	 xmm1, QWORD PTR __real@0000000000000000
  000d2	0f 28 d1	 movaps	 xmm2, xmm1
  000d5	77 08		 ja	 SHORT $LN31@asr_4
  000d7	66 0f 57 15 00
	00 00 00	 xorpd	 xmm2, QWORD PTR __xmm@80000000000000008000000000000000
$LN31@asr_4:
  000df	f2 0f 10 65 18	 movsd	 xmm4, QWORD PTR _eps$[ebp]
  000e4	f2 0f 10 1d 00
	00 00 00	 movsd	 xmm3, QWORD PTR __real@402e000000000000
  000ec	66 0f 28 c4	 movapd	 xmm0, xmm4
  000f0	f2 0f 59 c3	 mulsd	 xmm0, xmm3
  000f4	66 0f 2f c2	 comisd	 xmm0, xmm2
  000f8	72 15		 jb	 SHORT $LN1@asr_4
; Line 299
  000fa	f2 0f 5e cb	 divsd	 xmm1, xmm3
  000fe	f2 0f 58 4d f8	 addsd	 xmm1, QWORD PTR tv190[ebp]
  00103	f2 0f 11 4d 10	 movsd	 QWORD PTR tv233[ebp], xmm1
  00108	dd 45 10	 fld	 QWORD PTR tv233[ebp]
; Line 302
  0010b	8b e5		 mov	 esp, ebp
  0010d	5d		 pop	 ebp
  0010e	c3		 ret	 0
$LN1@asr_4:
; Line 301
  0010f	f2 0f 59 25 00
	00 00 00	 mulsd	 xmm4, QWORD PTR __real@3fe0000000000000
  00117	83 ec 20	 sub	 esp, 32			; 00000020H
  0011a	f2 0f 10 45 10	 movsd	 xmm0, QWORD PTR _b$[ebp]
  0011f	f2 0f 11 6c 24
	18		 movsd	 QWORD PTR [esp+24], xmm5
  00125	f2 0f 11 64 24
	10		 movsd	 QWORD PTR [esp+16], xmm4
  0012b	f2 0f 11 44 24
	08		 movsd	 QWORD PTR [esp+8], xmm0
  00131	f2 0f 11 65 18	 movsd	 QWORD PTR _eps$[ebp], xmm4
  00136	f2 0f 11 3c 24	 movsd	 QWORD PTR [esp], xmm7
  0013b	e8 00 00 00 00	 call	 _asr_4
  00140	f2 0f 10 45 f0	 movsd	 xmm0, QWORD PTR _L$1$[ebp]
  00145	f2 0f 11 44 24
	18		 movsd	 QWORD PTR [esp+24], xmm0
  0014b	f2 0f 10 45 18	 movsd	 xmm0, QWORD PTR _eps$[ebp]
  00150	f2 0f 11 44 24
	10		 movsd	 QWORD PTR [esp+16], xmm0
  00156	f2 0f 10 45 e8	 movsd	 xmm0, QWORD PTR _c$1$[ebp]
  0015b	f2 0f 11 44 24
	08		 movsd	 QWORD PTR [esp+8], xmm0
  00161	f2 0f 10 45 08	 movsd	 xmm0, QWORD PTR _a$[ebp]
  00166	dd 5d 10	 fstp	 QWORD PTR tv169[ebp]
  00169	f2 0f 11 04 24	 movsd	 QWORD PTR [esp], xmm0
  0016e	e8 00 00 00 00	 call	 _asr_4
  00173	f2 0f 10 45 10	 movsd	 xmm0, QWORD PTR tv169[ebp]
  00178	83 c4 20	 add	 esp, 32			; 00000020H
  0017b	dd 5d 18	 fstp	 QWORD PTR tv198[ebp]
  0017e	f2 0f 58 45 18	 addsd	 xmm0, QWORD PTR tv198[ebp]
  00183	f2 0f 11 45 10	 movsd	 QWORD PTR tv196[ebp], xmm0
  00188	dd 45 10	 fld	 QWORD PTR tv196[ebp]
; Line 302
  0018b	8b e5		 mov	 esp, ebp
  0018d	5d		 pop	 ebp
  0018e	c3		 ret	 0
_asr_4	ENDP
_TEXT	ENDS
; Function compile flags: /Ogtp
;	COMDAT _simpson_1
_TEXT	SEGMENT
tv131 = -16						; size = 8
tv167 = -8						; size = 8
tv133 = -8						; size = 8
tv174 = 8						; size = 8
tv161 = 8						; size = 8
tv73 = 8						; size = 8
tv65 = 8						; size = 8
_a$ = 8							; size = 8
_b$ = 16						; size = 8
_flag$ = 24						; size = 4
_simpson_1 PROC						; COMDAT
; File f:\0\luaspq-1.1\luaspq-1.1\src\lmathlibc.c
; Line 281
  00000	55		 push	 ebp
  00001	8b ec		 mov	 ebp, esp
  00003	83 ec 10	 sub	 esp, 16			; 00000010H
; Line 282
  00006	f2 0f 10 6d 10	 movsd	 xmm5, QWORD PTR _b$[ebp]
  0000b	f2 0f 10 65 08	 movsd	 xmm4, QWORD PTR _a$[ebp]
  00010	66 0f 28 dd	 movapd	 xmm3, xmm5
; Line 283
  00014	8b 45 18	 mov	 eax, DWORD PTR _flag$[ebp]
  00017	f2 0f 5c dc	 subsd	 xmm3, xmm4
  0001b	f2 0f 11 5d f0	 movsd	 QWORD PTR tv131[ebp], xmm3
  00020	66 0f 28 c3	 movapd	 xmm0, xmm3
  00024	f2 0f 59 05 00
	00 00 00	 mulsd	 xmm0, QWORD PTR __real@3fe0000000000000
  0002c	f2 0f 58 c4	 addsd	 xmm0, xmm4
  00030	83 f8 01	 cmp	 eax, 1
  00033	75 40		 jne	 SHORT $LN2@simpson_1
; Line 285
  00035	f2 0f 10 15 00
	00 00 00	 movsd	 xmm2, QWORD PTR __real@4010000000000000
  0003d	f2 0f 10 0d 00
	00 00 00	 movsd	 xmm1, QWORD PTR __real@3ff0000000000000
  00045	f2 0f 5e d0	 divsd	 xmm2, xmm0
  00049	66 0f 28 c1	 movapd	 xmm0, xmm1
  0004d	f2 0f 5e c4	 divsd	 xmm0, xmm4
  00051	f2 0f 5e cd	 divsd	 xmm1, xmm5
  00055	f2 0f 58 d0	 addsd	 xmm2, xmm0
  00059	f2 0f 58 d1	 addsd	 xmm2, xmm1
  0005d	f2 0f 59 d3	 mulsd	 xmm2, xmm3
  00061	f2 0f 5e 15 00
	00 00 00	 divsd	 xmm2, QWORD PTR __real@4018000000000000
  00069	f2 0f 11 55 08	 movsd	 QWORD PTR tv174[ebp], xmm2
  0006e	dd 45 08	 fld	 QWORD PTR tv174[ebp]
; Line 292
  00071	8b e5		 mov	 esp, ebp
  00073	5d		 pop	 ebp
  00074	c3		 ret	 0
$LN2@simpson_1:
; Line 287
  00075	83 f8 02	 cmp	 eax, 2
  00078	75 7b		 jne	 SHORT $LN1@simpson_1
; Line 289
  0007a	83 ec 08	 sub	 esp, 8
  0007d	f2 0f 11 04 24	 movsd	 QWORD PTR [esp], xmm0
  00082	e8 00 00 00 00	 call	 _F2
  00087	dd 5d f8	 fstp	 QWORD PTR tv167[ebp]
  0008a	f2 0f 10 45 f8	 movsd	 xmm0, QWORD PTR tv167[ebp]
  0008f	f2 0f 59 05 00
	00 00 00	 mulsd	 xmm0, QWORD PTR __real@4010000000000000
  00097	f2 0f 11 45 f8	 movsd	 QWORD PTR tv133[ebp], xmm0
  0009c	f2 0f 10 45 08	 movsd	 xmm0, QWORD PTR _a$[ebp]
  000a1	f2 0f 11 04 24	 movsd	 QWORD PTR [esp], xmm0
  000a6	e8 00 00 00 00	 call	 _F2
  000ab	f2 0f 10 45 f8	 movsd	 xmm0, QWORD PTR tv133[ebp]
  000b0	dd 5d 08	 fstp	 QWORD PTR tv161[ebp]
  000b3	f2 0f 58 45 08	 addsd	 xmm0, QWORD PTR tv161[ebp]
  000b8	f2 0f 11 45 f8	 movsd	 QWORD PTR tv133[ebp], xmm0
  000bd	f2 0f 10 45 10	 movsd	 xmm0, QWORD PTR _b$[ebp]
  000c2	f2 0f 11 04 24	 movsd	 QWORD PTR [esp], xmm0
  000c7	e8 00 00 00 00	 call	 _F2
  000cc	f2 0f 10 45 f8	 movsd	 xmm0, QWORD PTR tv133[ebp]
  000d1	83 c4 08	 add	 esp, 8
  000d4	dd 5d 08	 fstp	 QWORD PTR tv65[ebp]
  000d7	f2 0f 58 45 08	 addsd	 xmm0, QWORD PTR tv65[ebp]
  000dc	f2 0f 59 45 f0	 mulsd	 xmm0, QWORD PTR tv131[ebp]
  000e1	f2 0f 5e 05 00
	00 00 00	 divsd	 xmm0, QWORD PTR __real@4018000000000000
  000e9	f2 0f 11 45 08	 movsd	 QWORD PTR tv73[ebp], xmm0
  000ee	dd 45 08	 fld	 QWORD PTR tv73[ebp]
; Line 292
  000f1	8b e5		 mov	 esp, ebp
  000f3	5d		 pop	 ebp
  000f4	c3		 ret	 0
$LN1@simpson_1:
; Line 291
  000f5	dd 05 00 00 00
	00		 fld	 QWORD PTR __real@8000000000000000
; Line 292
  000fb	8b e5		 mov	 esp, ebp
  000fd	5d		 pop	 ebp
  000fe	c3		 ret	 0
_simpson_1 ENDP
_TEXT	ENDS
; Function compile flags: /Ogtp
;	COMDAT _simpson_2
_TEXT	SEGMENT
_a$ = 8							; size = 8
tv164 = 16						; size = 8
_b$ = 16						; size = 8
_simpson_2 PROC						; COMDAT
; File f:\0\luaspq-1.1\luaspq-1.1\src\lmathlibc.c
; Line 277
  00000	55		 push	 ebp
  00001	8b ec		 mov	 ebp, esp
; Line 278
  00003	f2 0f 10 55 08	 movsd	 xmm2, QWORD PTR _a$[ebp]
  00008	f2 0f 10 6d 10	 movsd	 xmm5, QWORD PTR _b$[ebp]
  0000d	f2 0f 10 1d 00
	00 00 00	 movsd	 xmm3, QWORD PTR __real@4010000000000000
  00015	f2 0f 5c ea	 subsd	 xmm5, xmm2
  00019	f2 0f 10 0d 00
	00 00 00	 movsd	 xmm1, QWORD PTR __real@3ff0000000000000
  00021	66 0f 28 c5	 movapd	 xmm0, xmm5
  00025	f2 0f 59 05 00
	00 00 00	 mulsd	 xmm0, QWORD PTR __real@3fe0000000000000
  0002d	f2 0f 58 c2	 addsd	 xmm0, xmm2
  00031	f2 0f 5e d8	 divsd	 xmm3, xmm0
  00035	66 0f 28 c1	 movapd	 xmm0, xmm1
  00039	f2 0f 5e 4d 10	 divsd	 xmm1, QWORD PTR _b$[ebp]
  0003e	f2 0f 5e c2	 divsd	 xmm0, xmm2
  00042	f2 0f 58 d8	 addsd	 xmm3, xmm0
  00046	f2 0f 58 d9	 addsd	 xmm3, xmm1
  0004a	f2 0f 59 dd	 mulsd	 xmm3, xmm5
  0004e	f2 0f 5e 1d 00
	00 00 00	 divsd	 xmm3, QWORD PTR __real@4018000000000000
  00056	f2 0f 11 5d 10	 movsd	 QWORD PTR tv164[ebp], xmm3
  0005b	dd 45 10	 fld	 QWORD PTR tv164[ebp]
; Line 279
  0005e	5d		 pop	 ebp
  0005f	c3		 ret	 0
_simpson_2 ENDP
_TEXT	ENDS
; Function compile flags: /Ogtp
;	COMDAT _F2
_TEXT	SEGMENT
tv142 = 8						; size = 8
_x$ = 8							; size = 8
_F2	PROC						; COMDAT
; File f:\0\luaspq-1.1\luaspq-1.1\src\lmathlibc.c
; Line 273
  00000	55		 push	 ebp
  00001	8b ec		 mov	 ebp, esp
; Line 274
  00003	f2 0f 10 45 08	 movsd	 xmm0, QWORD PTR _x$[ebp]
  00008	0f 57 d2	 xorps	 xmm2, xmm2
  0000b	f2 0f 10 25 00
	00 00 00	 movsd	 xmm4, QWORD PTR __real@3ff0000000000000
  00013	f2 0f 10 2d 00
	00 00 00	 movsd	 xmm5, QWORD PTR __real@3fe0000000000000
  0001b	66 0f 28 dc	 movapd	 xmm3, xmm4
  0001f	f2 0f 59 c0	 mulsd	 xmm0, xmm0
  00023	f2 0f 5c d8	 subsd	 xmm3, xmm0
  00027	66 0f 28 cb	 movapd	 xmm1, xmm3
  0002b	f2 0f 59 cd	 mulsd	 xmm1, xmm5
  0002f	66 0f 2e d1	 ucomisd xmm2, xmm1
  00033	9f		 lahf
  00034	f6 c4 44	 test	 ah, 68			; 00000044H
  00037	7b 25		 jnp	 SHORT $LN3@F2
  00039	8d a4 24 00 00
	00 00		 npad	 7
$LL4@F2:
  00040	66 0f 28 c3	 movapd	 xmm0, xmm3
  00044	66 0f 28 d1	 movapd	 xmm2, xmm1
  00048	f2 0f 5e c1	 divsd	 xmm0, xmm1
  0004c	f2 0f 58 c8	 addsd	 xmm1, xmm0
  00050	f2 0f 59 cd	 mulsd	 xmm1, xmm5
  00054	66 0f 2e d1	 ucomisd xmm2, xmm1
  00058	9f		 lahf
  00059	f6 c4 44	 test	 ah, 68			; 00000044H
  0005c	7a e2		 jp	 SHORT $LL4@F2
$LN3@F2:
  0005e	f2 0f 5e e2	 divsd	 xmm4, xmm2
  00062	f2 0f 11 65 08	 movsd	 QWORD PTR tv142[ebp], xmm4
  00067	dd 45 08	 fld	 QWORD PTR tv142[ebp]
; Line 275
  0006a	5d		 pop	 ebp
  0006b	c3		 ret	 0
_F2	ENDP
_TEXT	ENDS
; Function compile flags: /Ogtp
;	COMDAT _F1
_TEXT	SEGMENT
tv66 = 8						; size = 8
_x$ = 8							; size = 8
_F1	PROC						; COMDAT
; File f:\0\luaspq-1.1\luaspq-1.1\src\lmathlibc.c
; Line 269
  00000	55		 push	 ebp
  00001	8b ec		 mov	 ebp, esp
; Line 270
  00003	f2 0f 10 05 00
	00 00 00	 movsd	 xmm0, QWORD PTR __real@3ff0000000000000
  0000b	f2 0f 5e 45 08	 divsd	 xmm0, QWORD PTR _x$[ebp]
  00010	f2 0f 11 45 08	 movsd	 QWORD PTR tv66[ebp], xmm0
  00015	dd 45 08	 fld	 QWORD PTR tv66[ebp]
; Line 271
  00018	5d		 pop	 ebp
  00019	c3		 ret	 0
_F1	ENDP
_TEXT	ENDS
; Function compile flags: /Ogtp
;	COMDAT ___fabs
_TEXT	SEGMENT
tv67 = 8						; size = 8
_value$ = 8						; size = 8
___fabs	PROC						; COMDAT
; File f:\0\luaspq-1.1\luaspq-1.1\src\lmathlibc.c
; Line 476
  00000	55		 push	 ebp
  00001	8b ec		 mov	 ebp, esp
; Line 477
  00003	f2 0f 10 45 08	 movsd	 xmm0, QWORD PTR _value$[ebp]
  00008	66 0f 2f 05 00
	00 00 00	 comisd	 xmm0, QWORD PTR __real@0000000000000000
  00010	77 08		 ja	 SHORT $LN5@fabs
  00012	66 0f 57 05 00
	00 00 00	 xorpd	 xmm0, QWORD PTR __xmm@80000000000000008000000000000000
$LN5@fabs:
  0001a	f2 0f 11 45 08	 movsd	 QWORD PTR tv67[ebp], xmm0
  0001f	dd 45 08	 fld	 QWORD PTR tv67[ebp]
; Line 478
  00022	5d		 pop	 ebp
  00023	c3		 ret	 0
___fabs	ENDP
_TEXT	ENDS
; Function compile flags: /Ogtp
;	COMDAT ___fmod
_TEXT	SEGMENT
tv70 = 8						; size = 8
__X$ = 8						; size = 8
__Y$ = 16						; size = 8
___fmod	PROC						; COMDAT
; File f:\0\luaspq-1.1\luaspq-1.1\src\lmathlibc.c
; Line 400
  00000	55		 push	 ebp
  00001	8b ec		 mov	 ebp, esp
; Line 401
  00003	f2 0f 10 55 08	 movsd	 xmm2, QWORD PTR __X$[ebp]
  00008	66 0f 28 c2	 movapd	 xmm0, xmm2
  0000c	f2 0f 5e 45 10	 divsd	 xmm0, QWORD PTR __Y$[ebp]
  00011	f2 0f 2c c0	 cvttsd2si eax, xmm0
  00015	66 0f 6e c0	 movd	 xmm0, eax
  00019	f3 0f e6 c0	 cvtdq2pd xmm0, xmm0
  0001d	f2 0f 59 45 10	 mulsd	 xmm0, QWORD PTR __Y$[ebp]
  00022	f2 0f 5c d0	 subsd	 xmm2, xmm0
  00026	f2 0f 11 55 08	 movsd	 QWORD PTR tv70[ebp], xmm2
  0002b	dd 45 08	 fld	 QWORD PTR tv70[ebp]
; Line 402
  0002e	5d		 pop	 ebp
  0002f	c3		 ret	 0
___fmod	ENDP
_TEXT	ENDS
; Function compile flags: /Ogtp
;	COMDAT ___tanh
_TEXT	SEGMENT
tv192 = -8						; size = 8
tv208 = 8						; size = 8
tv199 = 8						; size = 8
tv187 = 8						; size = 8
_x$ = 8							; size = 8
___tanh	PROC						; COMDAT
; File f:\0\luaspq-1.1\luaspq-1.1\src\lmathlibc.c
; Line 373
  00000	55		 push	 ebp
  00001	8b ec		 mov	 ebp, esp
; Line 374
  00003	f2 0f 10 4d 08	 movsd	 xmm1, QWORD PTR _x$[ebp]
  00008	0f 57 c0	 xorps	 xmm0, xmm0
  0000b	83 ec 08	 sub	 esp, 8
  0000e	66 0f 2f c1	 comisd	 xmm0, xmm1
  00012	76 2e		 jbe	 SHORT $LN3@tanh
  00014	66 0f 57 0d 00
	00 00 00	 xorpd	 xmm1, QWORD PTR __xmm@80000000000000008000000000000000
  0001c	83 ec 08	 sub	 esp, 8
  0001f	f2 0f 11 0c 24	 movsd	 QWORD PTR [esp], xmm1
  00024	e8 00 00 00 00	 call	 __exp
  00029	f2 0f 10 15 00
	00 00 00	 movsd	 xmm2, QWORD PTR __real@3ff0000000000000
  00031	83 c4 08	 add	 esp, 8
  00034	dd 5d 08	 fstp	 QWORD PTR tv208[ebp]
  00037	66 0f 28 ca	 movapd	 xmm1, xmm2
  0003b	f2 0f 5e 4d 08	 divsd	 xmm1, QWORD PTR tv208[ebp]
  00040	eb 5a		 jmp	 SHORT $LN4@tanh
$LN3@tanh:
  00042	66 0f 2f c8	 comisd	 xmm1, xmm0
  00046	56		 push	 esi
  00047	f2 0f 2c f1	 cvttsd2si esi, xmm1
  0004b	73 01		 jae	 SHORT $LN6@tanh
  0004d	4e		 dec	 esi
$LN6@tanh:
  0004e	66 0f 6e c6	 movd	 xmm0, esi
  00052	83 ec 08	 sub	 esp, 8
  00055	f3 0f e6 c0	 cvtdq2pd xmm0, xmm0
  00059	f2 0f 5c c8	 subsd	 xmm1, xmm0
  0005d	f2 0f 11 0c 24	 movsd	 QWORD PTR [esp], xmm1
  00062	e8 00 00 00 00	 call	 _eee
  00067	f2 0f 10 05 00
	00 00 00	 movsd	 xmm0, QWORD PTR __real@4005bf0a8b145769
  0006f	83 c4 08	 add	 esp, 8
  00072	dd 5d 08	 fstp	 QWORD PTR tv199[ebp]
  00075	56		 push	 esi
  00076	83 ec 08	 sub	 esp, 8
  00079	f2 0f 11 04 24	 movsd	 QWORD PTR [esp], xmm0
  0007e	e8 00 00 00 00	 call	 ___pow
  00083	f2 0f 10 4d 08	 movsd	 xmm1, QWORD PTR tv199[ebp]
  00088	83 c4 0c	 add	 esp, 12			; 0000000cH
  0008b	f2 0f 10 15 00
	00 00 00	 movsd	 xmm2, QWORD PTR __real@3ff0000000000000
  00093	dd 5d f8	 fstp	 QWORD PTR tv192[ebp]
  00096	f2 0f 59 4d f8	 mulsd	 xmm1, QWORD PTR tv192[ebp]
  0009b	5e		 pop	 esi
$LN4@tanh:
; Line 375
  0009c	f2 0f 10 05 00
	00 00 00	 movsd	 xmm0, QWORD PTR __real@4000000000000000
  000a4	f2 0f 59 c9	 mulsd	 xmm1, xmm1
  000a8	f2 0f 58 ca	 addsd	 xmm1, xmm2
  000ac	f2 0f 5e c1	 divsd	 xmm0, xmm1
  000b0	f2 0f 5c d0	 subsd	 xmm2, xmm0
  000b4	f2 0f 11 55 08	 movsd	 QWORD PTR tv187[ebp], xmm2
  000b9	dd 45 08	 fld	 QWORD PTR tv187[ebp]
; Line 376
  000bc	8b e5		 mov	 esp, ebp
  000be	5d		 pop	 ebp
  000bf	c3		 ret	 0
___tanh	ENDP
_TEXT	ENDS
; Function compile flags: /Ogtp
;	COMDAT ___cosh
_TEXT	SEGMENT
tv215 = -16						; size = 8
tv186 = -16						; size = 8
tv234 = -8						; size = 8
tv222 = -8						; size = 8
$T1 = -8						; size = 8
tv202 = 8						; size = 8
tv193 = 8						; size = 8
tv179 = 8						; size = 8
_x$ = 8							; size = 8
___cosh	PROC						; COMDAT
; File f:\0\luaspq-1.1\luaspq-1.1\src\lmathlibc.c
; Line 369
  00000	55		 push	 ebp
  00001	8b ec		 mov	 ebp, esp
; Line 370
  00003	f2 0f 10 4d 08	 movsd	 xmm1, QWORD PTR _x$[ebp]
  00008	83 ec 10	 sub	 esp, 16			; 00000010H
  0000b	0f 57 c0	 xorps	 xmm0, xmm0
  0000e	66 0f 2f c1	 comisd	 xmm0, xmm1
  00012	56		 push	 esi
  00013	76 32		 jbe	 SHORT $LN3@cosh
  00015	83 ec 08	 sub	 esp, 8
  00018	0f 28 c1	 movaps	 xmm0, xmm1
  0001b	66 0f 57 05 00
	00 00 00	 xorpd	 xmm0, QWORD PTR __xmm@80000000000000008000000000000000
  00023	f2 0f 11 04 24	 movsd	 QWORD PTR [esp], xmm0
  00028	e8 00 00 00 00	 call	 __exp
  0002d	f2 0f 10 15 00
	00 00 00	 movsd	 xmm2, QWORD PTR __real@3ff0000000000000
  00035	83 c4 08	 add	 esp, 8
  00038	dd 5d f8	 fstp	 QWORD PTR tv234[ebp]
  0003b	f2 0f 5e 55 f8	 divsd	 xmm2, QWORD PTR tv234[ebp]
  00040	f2 0f 11 55 f8	 movsd	 QWORD PTR $T1[ebp], xmm2
  00045	eb 55		 jmp	 SHORT $LN4@cosh
$LN3@cosh:
  00047	66 0f 2f c8	 comisd	 xmm1, xmm0
  0004b	f2 0f 2c f1	 cvttsd2si esi, xmm1
  0004f	73 01		 jae	 SHORT $LN6@cosh
  00051	4e		 dec	 esi
$LN6@cosh:
  00052	66 0f 6e c6	 movd	 xmm0, esi
  00056	83 ec 08	 sub	 esp, 8
  00059	f3 0f e6 c0	 cvtdq2pd xmm0, xmm0
  0005d	f2 0f 5c c8	 subsd	 xmm1, xmm0
  00061	f2 0f 11 0c 24	 movsd	 QWORD PTR [esp], xmm1
  00066	e8 00 00 00 00	 call	 _eee
  0006b	f2 0f 10 05 00
	00 00 00	 movsd	 xmm0, QWORD PTR __real@4005bf0a8b145769
  00073	83 c4 08	 add	 esp, 8
  00076	dd 5d f8	 fstp	 QWORD PTR tv222[ebp]
  00079	56		 push	 esi
  0007a	83 ec 08	 sub	 esp, 8
  0007d	f2 0f 11 04 24	 movsd	 QWORD PTR [esp], xmm0
  00082	e8 00 00 00 00	 call	 ___pow
  00087	f2 0f 10 45 f8	 movsd	 xmm0, QWORD PTR tv222[ebp]
  0008c	83 c4 0c	 add	 esp, 12			; 0000000cH
  0008f	dd 5d f0	 fstp	 QWORD PTR tv215[ebp]
  00092	f2 0f 59 45 f0	 mulsd	 xmm0, QWORD PTR tv215[ebp]
  00097	f2 0f 11 45 f8	 movsd	 QWORD PTR $T1[ebp], xmm0
$LN4@cosh:
  0009c	f2 0f 10 4d 08	 movsd	 xmm1, QWORD PTR _x$[ebp]
  000a1	0f 57 c0	 xorps	 xmm0, xmm0
  000a4	f2 0f 10 15 00
	00 00 00	 movsd	 xmm2, QWORD PTR __xmm@80000000000000008000000000000000
  000ac	66 0f 57 ca	 xorpd	 xmm1, xmm2
  000b0	66 0f 2f c1	 comisd	 xmm0, xmm1
  000b4	76 26		 jbe	 SHORT $LN10@cosh
  000b6	83 ec 08	 sub	 esp, 8
  000b9	66 0f 57 ca	 xorpd	 xmm1, xmm2
  000bd	f2 0f 11 0c 24	 movsd	 QWORD PTR [esp], xmm1
  000c2	e8 00 00 00 00	 call	 __exp
  000c7	f2 0f 10 05 00
	00 00 00	 movsd	 xmm0, QWORD PTR __real@3ff0000000000000
  000cf	83 c4 08	 add	 esp, 8
  000d2	dd 5d 08	 fstp	 QWORD PTR tv202[ebp]
  000d5	f2 0f 5e 45 08	 divsd	 xmm0, QWORD PTR tv202[ebp]
  000da	eb 50		 jmp	 SHORT $LN11@cosh
$LN10@cosh:
  000dc	66 0f 2f c8	 comisd	 xmm1, xmm0
  000e0	f2 0f 2c f1	 cvttsd2si esi, xmm1
  000e4	73 01		 jae	 SHORT $LN13@cosh
  000e6	4e		 dec	 esi
$LN13@cosh:
  000e7	66 0f 6e c6	 movd	 xmm0, esi
  000eb	83 ec 08	 sub	 esp, 8
  000ee	f3 0f e6 c0	 cvtdq2pd xmm0, xmm0
  000f2	f2 0f 5c c8	 subsd	 xmm1, xmm0
  000f6	f2 0f 11 0c 24	 movsd	 QWORD PTR [esp], xmm1
  000fb	e8 00 00 00 00	 call	 _eee
  00100	f2 0f 10 05 00
	00 00 00	 movsd	 xmm0, QWORD PTR __real@4005bf0a8b145769
  00108	83 c4 08	 add	 esp, 8
  0010b	dd 5d 08	 fstp	 QWORD PTR tv193[ebp]
  0010e	56		 push	 esi
  0010f	83 ec 08	 sub	 esp, 8
  00112	f2 0f 11 04 24	 movsd	 QWORD PTR [esp], xmm0
  00117	e8 00 00 00 00	 call	 ___pow
  0011c	f2 0f 10 45 08	 movsd	 xmm0, QWORD PTR tv193[ebp]
  00121	83 c4 0c	 add	 esp, 12			; 0000000cH
  00124	dd 5d f0	 fstp	 QWORD PTR tv186[ebp]
  00127	f2 0f 59 45 f0	 mulsd	 xmm0, QWORD PTR tv186[ebp]
$LN11@cosh:
  0012c	f2 0f 58 45 f8	 addsd	 xmm0, QWORD PTR $T1[ebp]
  00131	5e		 pop	 esi
  00132	f2 0f 59 05 00
	00 00 00	 mulsd	 xmm0, QWORD PTR __real@3fe0000000000000
  0013a	f2 0f 11 45 08	 movsd	 QWORD PTR tv179[ebp], xmm0
  0013f	dd 45 08	 fld	 QWORD PTR tv179[ebp]
; Line 371
  00142	8b e5		 mov	 esp, ebp
  00144	5d		 pop	 ebp
  00145	c3		 ret	 0
___cosh	ENDP
_TEXT	ENDS
; Function compile flags: /Ogtp
;	COMDAT ___sinh
_TEXT	SEGMENT
tv215 = -16						; size = 8
tv186 = -16						; size = 8
tv234 = -8						; size = 8
tv222 = -8						; size = 8
$T1 = -8						; size = 8
tv202 = 8						; size = 8
tv193 = 8						; size = 8
tv179 = 8						; size = 8
_x$ = 8							; size = 8
___sinh	PROC						; COMDAT
; File f:\0\luaspq-1.1\luaspq-1.1\src\lmathlibc.c
; Line 365
  00000	55		 push	 ebp
  00001	8b ec		 mov	 ebp, esp
; Line 366
  00003	f2 0f 10 4d 08	 movsd	 xmm1, QWORD PTR _x$[ebp]
  00008	83 ec 10	 sub	 esp, 16			; 00000010H
  0000b	0f 57 c0	 xorps	 xmm0, xmm0
  0000e	66 0f 2f c1	 comisd	 xmm0, xmm1
  00012	56		 push	 esi
  00013	76 2d		 jbe	 SHORT $LN3@sinh
  00015	83 ec 08	 sub	 esp, 8
  00018	0f 28 c1	 movaps	 xmm0, xmm1
  0001b	66 0f 57 05 00
	00 00 00	 xorpd	 xmm0, QWORD PTR __xmm@80000000000000008000000000000000
  00023	f2 0f 11 04 24	 movsd	 QWORD PTR [esp], xmm0
  00028	e8 00 00 00 00	 call	 __exp
  0002d	f2 0f 10 05 00
	00 00 00	 movsd	 xmm0, QWORD PTR __real@3ff0000000000000
  00035	83 c4 08	 add	 esp, 8
  00038	dd 5d f8	 fstp	 QWORD PTR tv234[ebp]
  0003b	f2 0f 5e 45 f8	 divsd	 xmm0, QWORD PTR tv234[ebp]
  00040	eb 50		 jmp	 SHORT $LN17@sinh
$LN3@sinh:
  00042	66 0f 2f c8	 comisd	 xmm1, xmm0
  00046	f2 0f 2c f1	 cvttsd2si esi, xmm1
  0004a	73 01		 jae	 SHORT $LN6@sinh
  0004c	4e		 dec	 esi
$LN6@sinh:
  0004d	66 0f 6e c6	 movd	 xmm0, esi
  00051	83 ec 08	 sub	 esp, 8
  00054	f3 0f e6 c0	 cvtdq2pd xmm0, xmm0
  00058	f2 0f 5c c8	 subsd	 xmm1, xmm0
  0005c	f2 0f 11 0c 24	 movsd	 QWORD PTR [esp], xmm1
  00061	e8 00 00 00 00	 call	 _eee
  00066	f2 0f 10 05 00
	00 00 00	 movsd	 xmm0, QWORD PTR __real@4005bf0a8b145769
  0006e	83 c4 08	 add	 esp, 8
  00071	dd 5d f8	 fstp	 QWORD PTR tv222[ebp]
  00074	56		 push	 esi
  00075	83 ec 08	 sub	 esp, 8
  00078	f2 0f 11 04 24	 movsd	 QWORD PTR [esp], xmm0
  0007d	e8 00 00 00 00	 call	 ___pow
  00082	f2 0f 10 45 f8	 movsd	 xmm0, QWORD PTR tv222[ebp]
  00087	83 c4 0c	 add	 esp, 12			; 0000000cH
  0008a	dd 5d f0	 fstp	 QWORD PTR tv215[ebp]
  0008d	f2 0f 59 45 f0	 mulsd	 xmm0, QWORD PTR tv215[ebp]
$LN17@sinh:
  00092	f2 0f 10 4d 08	 movsd	 xmm1, QWORD PTR _x$[ebp]
  00097	f2 0f 10 15 00
	00 00 00	 movsd	 xmm2, QWORD PTR __xmm@80000000000000008000000000000000
  0009f	f2 0f 11 45 f8	 movsd	 QWORD PTR $T1[ebp], xmm0
  000a4	66 0f 57 ca	 xorpd	 xmm1, xmm2
  000a8	0f 57 c0	 xorps	 xmm0, xmm0
  000ab	66 0f 2f c1	 comisd	 xmm0, xmm1
  000af	76 26		 jbe	 SHORT $LN10@sinh
  000b1	83 ec 08	 sub	 esp, 8
  000b4	66 0f 57 ca	 xorpd	 xmm1, xmm2
  000b8	f2 0f 11 0c 24	 movsd	 QWORD PTR [esp], xmm1
  000bd	e8 00 00 00 00	 call	 __exp
  000c2	f2 0f 10 0d 00
	00 00 00	 movsd	 xmm1, QWORD PTR __real@3ff0000000000000
  000ca	83 c4 08	 add	 esp, 8
  000cd	dd 5d 08	 fstp	 QWORD PTR tv202[ebp]
  000d0	f2 0f 5e 4d 08	 divsd	 xmm1, QWORD PTR tv202[ebp]
  000d5	eb 50		 jmp	 SHORT $LN11@sinh
$LN10@sinh:
  000d7	66 0f 2f c8	 comisd	 xmm1, xmm0
  000db	f2 0f 2c f1	 cvttsd2si esi, xmm1
  000df	73 01		 jae	 SHORT $LN13@sinh
  000e1	4e		 dec	 esi
$LN13@sinh:
  000e2	66 0f 6e c6	 movd	 xmm0, esi
  000e6	83 ec 08	 sub	 esp, 8
  000e9	f3 0f e6 c0	 cvtdq2pd xmm0, xmm0
  000ed	f2 0f 5c c8	 subsd	 xmm1, xmm0
  000f1	f2 0f 11 0c 24	 movsd	 QWORD PTR [esp], xmm1
  000f6	e8 00 00 00 00	 call	 _eee
  000fb	f2 0f 10 05 00
	00 00 00	 movsd	 xmm0, QWORD PTR __real@4005bf0a8b145769
  00103	83 c4 08	 add	 esp, 8
  00106	dd 5d 08	 fstp	 QWORD PTR tv193[ebp]
  00109	56		 push	 esi
  0010a	83 ec 08	 sub	 esp, 8
  0010d	f2 0f 11 04 24	 movsd	 QWORD PTR [esp], xmm0
  00112	e8 00 00 00 00	 call	 ___pow
  00117	f2 0f 10 4d 08	 movsd	 xmm1, QWORD PTR tv193[ebp]
  0011c	83 c4 0c	 add	 esp, 12			; 0000000cH
  0011f	dd 5d f0	 fstp	 QWORD PTR tv186[ebp]
  00122	f2 0f 59 4d f0	 mulsd	 xmm1, QWORD PTR tv186[ebp]
$LN11@sinh:
  00127	f2 0f 10 45 f8	 movsd	 xmm0, QWORD PTR $T1[ebp]
  0012c	f2 0f 5c c1	 subsd	 xmm0, xmm1
  00130	5e		 pop	 esi
  00131	f2 0f 59 05 00
	00 00 00	 mulsd	 xmm0, QWORD PTR __real@3fe0000000000000
  00139	f2 0f 11 45 08	 movsd	 QWORD PTR tv179[ebp], xmm0
  0013e	dd 45 08	 fld	 QWORD PTR tv179[ebp]
; Line 367
  00141	8b e5		 mov	 esp, ebp
  00143	5d		 pop	 ebp
  00144	c3		 ret	 0
___sinh	ENDP
_TEXT	ENDS
; Function compile flags: /Ogtp
;	COMDAT ___atan
_TEXT	SEGMENT
_result$1$ = -32					; size = 8
_result$1$ = -24					; size = 8
_result$1$ = -16					; size = 8
tv259 = -8						; size = 8
_tmp$1 = -8						; size = 8
_tmp$2 = -8						; size = 8
_tmp$3 = -8						; size = 8
_tmp$4 = -8						; size = 8
tv280 = 8						; size = 8
tv278 = 8						; size = 8
tv270 = 8						; size = 8
tv267 = 8						; size = 8
tv254 = 8						; size = 8
tv252 = 8						; size = 8
tv224 = 8						; size = 8
_x$ = 8							; size = 8
___atan	PROC						; COMDAT
; File f:\0\luaspq-1.1\luaspq-1.1\src\lmathlibc.c
; Line 349
  00000	55		 push	 ebp
  00001	8b ec		 mov	 ebp, esp
; Line 350
  00003	f2 0f 10 4d 08	 movsd	 xmm1, QWORD PTR _x$[ebp]
  00008	0f 57 c0	 xorps	 xmm0, xmm0
  0000b	83 ec 20	 sub	 esp, 32			; 00000020H
  0000e	66 0f 2f c1	 comisd	 xmm0, xmm1
  00012	76 2c		 jbe	 SHORT $LN3@atan
; Line 352
  00014	83 ec 08	 sub	 esp, 8
  00017	f2 0f 11 0c 24	 movsd	 QWORD PTR [esp], xmm1
  0001c	e8 00 00 00 00	 call	 ___atan
  00021	dd 5d 08	 fstp	 QWORD PTR tv280[ebp]
  00024	f2 0f 10 45 08	 movsd	 xmm0, QWORD PTR tv280[ebp]
  00029	83 c4 08	 add	 esp, 8
  0002c	66 0f 57 05 00
	00 00 00	 xorpd	 xmm0, QWORD PTR __xmm@80000000000000008000000000000000
  00034	f2 0f 11 45 08	 movsd	 QWORD PTR tv278[ebp], xmm0
  00039	dd 45 08	 fld	 QWORD PTR tv278[ebp]
; Line 363
  0003c	8b e5		 mov	 esp, ebp
  0003e	5d		 pop	 ebp
  0003f	c3		 ret	 0
$LN3@atan:
; Line 354
  00040	f2 0f 10 15 00
	00 00 00	 movsd	 xmm2, QWORD PTR __real@3ff0000000000000
  00048	66 0f 2f ca	 comisd	 xmm1, xmm2
  0004c	76 30		 jbe	 SHORT $LN2@atan
; Line 356
  0004e	f2 0f 5e d1	 divsd	 xmm2, xmm1
  00052	83 ec 08	 sub	 esp, 8
  00055	f2 0f 11 14 24	 movsd	 QWORD PTR [esp], xmm2
  0005a	e8 00 00 00 00	 call	 ___atan
  0005f	f2 0f 10 05 00
	00 00 00	 movsd	 xmm0, QWORD PTR __real@3ff921fb54442d18
  00067	83 c4 08	 add	 esp, 8
  0006a	dd 5d 08	 fstp	 QWORD PTR tv270[ebp]
  0006d	f2 0f 5c 45 08	 subsd	 xmm0, QWORD PTR tv270[ebp]
  00072	f2 0f 11 45 08	 movsd	 QWORD PTR tv267[ebp], xmm0
  00077	dd 45 08	 fld	 QWORD PTR tv267[ebp]
; Line 363
  0007a	8b e5		 mov	 esp, ebp
  0007c	5d		 pop	 ebp
  0007d	c3		 ret	 0
$LN2@atan:
; Line 358
  0007e	66 0f 2f 0d 00
	00 00 00	 comisd	 xmm1, QWORD PTR __real@3f50624dd2f1a9fc
  00086	76 56		 jbe	 SHORT $LN1@atan
; Line 360
  00088	0f 28 c1	 movaps	 xmm0, xmm1
  0008b	83 ec 08	 sub	 esp, 8
  0008e	f2 0f 59 c1	 mulsd	 xmm0, xmm1
  00092	f2 0f 58 c2	 addsd	 xmm0, xmm2
  00096	f2 0f 11 04 24	 movsd	 QWORD PTR [esp], xmm0
  0009b	e8 00 00 00 00	 call	 _sqrt_1
  000a0	dd 5d f8	 fstp	 QWORD PTR tv259[ebp]
  000a3	f2 0f 10 45 f8	 movsd	 xmm0, QWORD PTR tv259[ebp]
  000a8	f2 0f 5c 05 00
	00 00 00	 subsd	 xmm0, QWORD PTR __real@3ff0000000000000
  000b0	f2 0f 5e 45 08	 divsd	 xmm0, QWORD PTR _x$[ebp]
  000b5	f2 0f 11 04 24	 movsd	 QWORD PTR [esp], xmm0
  000ba	e8 00 00 00 00	 call	 ___atan
  000bf	dd 5d 08	 fstp	 QWORD PTR tv254[ebp]
  000c2	f2 0f 10 45 08	 movsd	 xmm0, QWORD PTR tv254[ebp]
  000c7	83 c4 08	 add	 esp, 8
  000ca	f2 0f 59 05 00
	00 00 00	 mulsd	 xmm0, QWORD PTR __real@4000000000000000
  000d2	f2 0f 11 45 08	 movsd	 QWORD PTR tv252[ebp], xmm0
  000d7	dd 45 08	 fld	 QWORD PTR tv252[ebp]
; Line 363
  000da	8b e5		 mov	 esp, ebp
  000dc	5d		 pop	 ebp
  000dd	c3		 ret	 0
$LN1@atan:
; Line 362
  000de	6a 01		 push	 1
  000e0	83 ec 08	 sub	 esp, 8
  000e3	f2 0f 11 0c 24	 movsd	 QWORD PTR [esp], xmm1
  000e8	e8 00 00 00 00	 call	 ___pow
  000ed	f2 0f 10 55 08	 movsd	 xmm2, QWORD PTR _x$[ebp]
  000f2	83 c4 0c	 add	 esp, 12			; 0000000cH
  000f5	dd 5d f8	 fstp	 QWORD PTR _tmp$4[ebp]
  000f8	f2 0f 10 4d f8	 movsd	 xmm1, QWORD PTR _tmp$4[ebp]
  000fd	f2 0f 59 ca	 mulsd	 xmm1, xmm2
  00101	6a 02		 push	 2
  00103	83 ec 08	 sub	 esp, 8
  00106	f2 0f 59 4d f8	 mulsd	 xmm1, QWORD PTR _tmp$4[ebp]
  0010b	f2 0f 11 14 24	 movsd	 QWORD PTR [esp], xmm2
  00110	f2 0f 11 4d f0	 movsd	 QWORD PTR _result$1$[ebp], xmm1
  00115	e8 00 00 00 00	 call	 ___pow
  0011a	f2 0f 10 55 08	 movsd	 xmm2, QWORD PTR _x$[ebp]
  0011f	83 c4 0c	 add	 esp, 12			; 0000000cH
  00122	dd 5d f8	 fstp	 QWORD PTR _tmp$3[ebp]
  00125	f2 0f 10 4d f8	 movsd	 xmm1, QWORD PTR _tmp$3[ebp]
  0012a	f2 0f 59 ca	 mulsd	 xmm1, xmm2
  0012e	6a 03		 push	 3
  00130	83 ec 08	 sub	 esp, 8
  00133	f2 0f 59 4d f8	 mulsd	 xmm1, QWORD PTR _tmp$3[ebp]
  00138	f2 0f 11 14 24	 movsd	 QWORD PTR [esp], xmm2
  0013d	f2 0f 11 4d e8	 movsd	 QWORD PTR _result$1$[ebp], xmm1
  00142	e8 00 00 00 00	 call	 ___pow
  00147	f2 0f 10 55 08	 movsd	 xmm2, QWORD PTR _x$[ebp]
  0014c	83 c4 0c	 add	 esp, 12			; 0000000cH
  0014f	dd 5d f8	 fstp	 QWORD PTR _tmp$2[ebp]
  00152	f2 0f 10 4d f8	 movsd	 xmm1, QWORD PTR _tmp$2[ebp]
  00157	f2 0f 59 ca	 mulsd	 xmm1, xmm2
  0015b	6a 04		 push	 4
  0015d	83 ec 08	 sub	 esp, 8
  00160	f2 0f 59 4d f8	 mulsd	 xmm1, QWORD PTR _tmp$2[ebp]
  00165	f2 0f 11 14 24	 movsd	 QWORD PTR [esp], xmm2
  0016a	f2 0f 11 4d e0	 movsd	 QWORD PTR _result$1$[ebp], xmm1
  0016f	e8 00 00 00 00	 call	 ___pow
  00174	f2 0f 10 45 f0	 movsd	 xmm0, QWORD PTR _result$1$[ebp]
  00179	83 c4 0c	 add	 esp, 12			; 0000000cH
  0017c	f2 0f 5e 05 00
	00 00 00	 divsd	 xmm0, QWORD PTR __real@4008000000000000
  00184	f2 0f 10 55 08	 movsd	 xmm2, QWORD PTR _x$[ebp]
  00189	dd 5d f8	 fstp	 QWORD PTR _tmp$1[ebp]
  0018c	f2 0f 10 4d f8	 movsd	 xmm1, QWORD PTR _tmp$1[ebp]
  00191	f2 0f 59 ca	 mulsd	 xmm1, xmm2
  00195	f2 0f 5c d0	 subsd	 xmm2, xmm0
  00199	f2 0f 10 45 e8	 movsd	 xmm0, QWORD PTR _result$1$[ebp]
  0019e	f2 0f 5e 05 00
	00 00 00	 divsd	 xmm0, QWORD PTR __real@4014000000000000
  001a6	f2 0f 59 4d f8	 mulsd	 xmm1, QWORD PTR _tmp$1[ebp]
  001ab	f2 0f 58 d0	 addsd	 xmm2, xmm0
  001af	f2 0f 10 45 e0	 movsd	 xmm0, QWORD PTR _result$1$[ebp]
  001b4	f2 0f 5e 05 00
	00 00 00	 divsd	 xmm0, QWORD PTR __real@401c000000000000
  001bc	f2 0f 5e 0d 00
	00 00 00	 divsd	 xmm1, QWORD PTR __real@4022000000000000
  001c4	f2 0f 5c d0	 subsd	 xmm2, xmm0
  001c8	f2 0f 58 d1	 addsd	 xmm2, xmm1
  001cc	f2 0f 11 55 08	 movsd	 QWORD PTR tv224[ebp], xmm2
  001d1	dd 45 08	 fld	 QWORD PTR tv224[ebp]
; Line 363
  001d4	8b e5		 mov	 esp, ebp
  001d6	5d		 pop	 ebp
  001d7	c3		 ret	 0
___atan	ENDP
_TEXT	ENDS
; Function compile flags: /Ogtp
;	COMDAT ___acos
_TEXT	SEGMENT
tv72 = 8						; size = 8
tv67 = 8						; size = 8
_x$ = 8							; size = 8
___acos	PROC						; COMDAT
; File f:\0\luaspq-1.1\luaspq-1.1\src\lmathlibc.c
; Line 341
  00000	55		 push	 ebp
  00001	8b ec		 mov	 ebp, esp
; Line 342
  00003	f2 0f 10 4d 08	 movsd	 xmm1, QWORD PTR _x$[ebp]
  00008	66 0f 2f 0d 00
	00 00 00	 comisd	 xmm1, QWORD PTR __real@0000000000000000
  00010	66 0f 28 c1	 movapd	 xmm0, xmm1
  00014	77 08		 ja	 SHORT $LN7@acos
  00016	66 0f 57 05 00
	00 00 00	 xorpd	 xmm0, QWORD PTR __xmm@80000000000000008000000000000000
$LN7@acos:
  0001e	66 0f 2f 05 00
	00 00 00	 comisd	 xmm0, QWORD PTR __real@3ff0000000000000
  00026	76 08		 jbe	 SHORT $LN1@acos
; Line 344
  00028	dd 05 00 00 00
	00		 fld	 QWORD PTR __real@bff0000000000000
; Line 347
  0002e	5d		 pop	 ebp
  0002f	c3		 ret	 0
$LN1@acos:
; Line 346
  00030	83 ec 08	 sub	 esp, 8
  00033	f2 0f 11 0c 24	 movsd	 QWORD PTR [esp], xmm1
  00038	e8 00 00 00 00	 call	 ___asin
  0003d	f2 0f 10 05 00
	00 00 00	 movsd	 xmm0, QWORD PTR __real@3ff921fb54442d18
  00045	83 c4 08	 add	 esp, 8
  00048	dd 5d 08	 fstp	 QWORD PTR tv72[ebp]
  0004b	f2 0f 5c 45 08	 subsd	 xmm0, QWORD PTR tv72[ebp]
  00050	f2 0f 11 45 08	 movsd	 QWORD PTR tv67[ebp], xmm0
  00055	dd 45 08	 fld	 QWORD PTR tv67[ebp]
; Line 347
  00058	5d		 pop	 ebp
  00059	c3		 ret	 0
___acos	ENDP
_TEXT	ENDS
; Function compile flags: /Ogtp
;	COMDAT ___asin
_TEXT	SEGMENT
tv136 = -32						; size = 8
tv198 = -24						; size = 8
tv192 = -24						; size = 8
_fl$1$ = -16						; size = 8
tv205 = -8						; size = 8
tv76 = -8						; size = 8
tv139 = 8						; size = 8
tv130 = 8						; size = 8
_x$ = 8							; size = 8
___asin	PROC						; COMDAT
; File f:\0\luaspq-1.1\luaspq-1.1\src\lmathlibc.c
; Line 322
  00000	55		 push	 ebp
  00001	8b ec		 mov	 ebp, esp
; Line 323
  00003	f2 0f 10 4d 08	 movsd	 xmm1, QWORD PTR _x$[ebp]
  00008	0f 57 db	 xorps	 xmm3, xmm3
  0000b	f2 0f 10 2d 00
	00 00 00	 movsd	 xmm5, QWORD PTR __xmm@80000000000000008000000000000000
  00013	83 ec 20	 sub	 esp, 32			; 00000020H
  00016	66 0f 2f cb	 comisd	 xmm1, xmm3
  0001a	66 0f 28 c1	 movapd	 xmm0, xmm1
  0001e	77 04		 ja	 SHORT $LN9@asin
  00020	66 0f 57 c5	 xorpd	 xmm0, xmm5
$LN9@asin:
  00024	f2 0f 10 25 00
	00 00 00	 movsd	 xmm4, QWORD PTR __real@3ff0000000000000
  0002c	66 0f 2f c4	 comisd	 xmm0, xmm4
  00030	76 0a		 jbe	 SHORT $LN3@asin
; Line 325
  00032	dd 05 00 00 00
	00		 fld	 QWORD PTR __real@bff0000000000000
; Line 338
  00038	8b e5		 mov	 esp, ebp
  0003a	5d		 pop	 ebp
  0003b	c3		 ret	 0
$LN3@asin:
; Line 328
  0003c	66 0f 2f d9	 comisd	 xmm3, xmm1
  00040	f2 0f 11 65 f0	 movsd	 QWORD PTR _fl$1$[ebp], xmm4
  00045	76 16		 jbe	 SHORT $LN2@asin
; Line 330
  00047	f2 0f 10 05 00
	00 00 00	 movsd	 xmm0, QWORD PTR __real@bff0000000000000
; Line 331
  0004f	f2 0f 59 c8	 mulsd	 xmm1, xmm0
  00053	f2 0f 11 45 f0	 movsd	 QWORD PTR _fl$1$[ebp], xmm0
  00058	f2 0f 11 4d 08	 movsd	 QWORD PTR _x$[ebp], xmm1
$LN2@asin:
; Line 333
  0005d	66 0f 28 d1	 movapd	 xmm2, xmm1
  00061	f2 0f 5c d4	 subsd	 xmm2, xmm4
  00065	66 0f 2f d3	 comisd	 xmm2, xmm3
  00069	77 04		 ja	 SHORT $LN13@asin
  0006b	66 0f 57 d5	 xorpd	 xmm2, xmm5
$LN13@asin:
  0006f	f2 0f 10 05 00
	00 00 00	 movsd	 xmm0, QWORD PTR __real@3e7ad7f29abcaf48
  00077	66 0f 2f c2	 comisd	 xmm0, xmm2
  0007b	76 0a		 jbe	 SHORT $LN1@asin
; Line 335
  0007d	dd 05 00 00 00
	00		 fld	 QWORD PTR __real@3ff921fb54442d18
; Line 338
  00083	8b e5		 mov	 esp, ebp
  00085	5d		 pop	 ebp
  00086	c3		 ret	 0
$LN1@asin:
; Line 337
  00087	0f 28 c1	 movaps	 xmm0, xmm1
  0008a	f2 0f 5c c3	 subsd	 xmm0, xmm3
  0008e	6a 02		 push	 2
  00090	83 ec 08	 sub	 esp, 8
  00093	f2 0f 11 45 e0	 movsd	 QWORD PTR tv136[ebp], xmm0
  00098	f2 0f 59 05 00
	00 00 00	 mulsd	 xmm0, QWORD PTR __real@3fe0000000000000
  000a0	f2 0f 58 c3	 addsd	 xmm0, xmm3
  000a4	f2 0f 11 04 24	 movsd	 QWORD PTR [esp], xmm0
  000a9	e8 00 00 00 00	 call	 _F2
  000ae	dd 5d f8	 fstp	 QWORD PTR tv205[ebp]
  000b1	f2 0f 10 45 f8	 movsd	 xmm0, QWORD PTR tv205[ebp]
  000b6	f2 0f 59 05 00
	00 00 00	 mulsd	 xmm0, QWORD PTR __real@4010000000000000
  000be	f2 0f 11 45 f8	 movsd	 QWORD PTR tv76[ebp], xmm0
  000c3	0f 57 c0	 xorps	 xmm0, xmm0
  000c6	f2 0f 11 04 24	 movsd	 QWORD PTR [esp], xmm0
  000cb	e8 00 00 00 00	 call	 _F2
  000d0	f2 0f 10 45 f8	 movsd	 xmm0, QWORD PTR tv76[ebp]
  000d5	dd 5d e8	 fstp	 QWORD PTR tv198[ebp]
  000d8	f2 0f 58 45 e8	 addsd	 xmm0, QWORD PTR tv198[ebp]
  000dd	f2 0f 11 45 f8	 movsd	 QWORD PTR tv76[ebp], xmm0
  000e2	f2 0f 10 45 08	 movsd	 xmm0, QWORD PTR _x$[ebp]
  000e7	f2 0f 11 04 24	 movsd	 QWORD PTR [esp], xmm0
  000ec	e8 00 00 00 00	 call	 _F2
  000f1	f2 0f 10 45 f8	 movsd	 xmm0, QWORD PTR tv76[ebp]
  000f6	dd 5d e8	 fstp	 QWORD PTR tv192[ebp]
  000f9	f2 0f 58 45 e8	 addsd	 xmm0, QWORD PTR tv192[ebp]
  000fe	f2 0f 59 45 e0	 mulsd	 xmm0, QWORD PTR tv136[ebp]
  00103	f2 0f 5e 05 00
	00 00 00	 divsd	 xmm0, QWORD PTR __real@4018000000000000
  0010b	f2 0f 11 04 24	 movsd	 QWORD PTR [esp], xmm0
  00110	83 ec 18	 sub	 esp, 24			; 00000018H
  00113	f2 0f 10 05 00
	00 00 00	 movsd	 xmm0, QWORD PTR __real@3e45798ee2308c3a
  0011b	f2 0f 11 44 24
	10		 movsd	 QWORD PTR [esp+16], xmm0
  00121	f2 0f 10 45 08	 movsd	 xmm0, QWORD PTR _x$[ebp]
  00126	f2 0f 11 44 24
	08		 movsd	 QWORD PTR [esp+8], xmm0
  0012c	0f 57 c0	 xorps	 xmm0, xmm0
  0012f	f2 0f 11 04 24	 movsd	 QWORD PTR [esp], xmm0
  00134	e8 00 00 00 00	 call	 _asr_2
  00139	dd 5d 08	 fstp	 QWORD PTR tv130[ebp]
  0013c	f2 0f 10 45 08	 movsd	 xmm0, QWORD PTR tv130[ebp]
  00141	83 c4 24	 add	 esp, 36			; 00000024H
  00144	f2 0f 59 45 f0	 mulsd	 xmm0, QWORD PTR _fl$1$[ebp]
  00149	f2 0f 11 45 08	 movsd	 QWORD PTR tv139[ebp], xmm0
  0014e	dd 45 08	 fld	 QWORD PTR tv139[ebp]
; Line 338
  00151	8b e5		 mov	 esp, ebp
  00153	5d		 pop	 ebp
  00154	c3		 ret	 0
___asin	ENDP
_TEXT	ENDS
; Function compile flags: /Ogtp
;	COMDAT _srand_2
_TEXT	SEGMENT
_srand_2 PROC						; COMDAT
; File f:\0\luaspq-1.1\luaspq-1.1\src\lmathlibc.c
; Line 384
  00000	6a 00		 push	 0
  00002	ff 15 00 00 00
	00		 call	 DWORD PTR __imp___time64
  00008	83 c4 04	 add	 esp, 4
  0000b	a3 00 00 00 00	 mov	 DWORD PTR _next, eax
; Line 385
  00010	c3		 ret	 0
_srand_2 ENDP
_TEXT	ENDS
; Function compile flags: /Ogtp
;	COMDAT _srand_1
_TEXT	SEGMENT
_seed$ = 8						; size = 4
_srand_1 PROC						; COMDAT
; File f:\0\luaspq-1.1\luaspq-1.1\src\lmathlibc.c
; Line 386
  00000	55		 push	 ebp
  00001	8b ec		 mov	 ebp, esp
; Line 387
  00003	8b 45 08	 mov	 eax, DWORD PTR _seed$[ebp]
  00006	a3 00 00 00 00	 mov	 DWORD PTR _next, eax
; Line 388
  0000b	5d		 pop	 ebp
  0000c	c3		 ret	 0
_srand_1 ENDP
_TEXT	ENDS
; Function compile flags: /Ogtp
;	COMDAT ___rand
_TEXT	SEGMENT
___rand	PROC						; COMDAT
; File f:\0\luaspq-1.1\luaspq-1.1\src\lmathlibc.c
; Line 379
  00000	69 05 00 00 00
	00 6d 4e c6 41	 imul	 eax, DWORD PTR _next, 1103515245
  0000a	05 f5 df 7f 07	 add	 eax, 125820917		; 077fdff5H
  0000f	a3 00 00 00 00	 mov	 DWORD PTR _next, eax
; Line 380
  00014	c1 e8 10	 shr	 eax, 16			; 00000010H
  00017	25 ff 7f 00 00	 and	 eax, 32767		; 00007fffH
; Line 381
  0001c	c3		 ret	 0
___rand	ENDP
_TEXT	ENDS
; Function compile flags: /Ogtp
;	COMDAT __powf
_TEXT	SEGMENT
tv217 = 8						; size = 8
tv210 = 8						; size = 8
tv201 = 8						; size = 8
$T1 = 8							; size = 8
_a$ = 8							; size = 8
tv194 = 16						; size = 8
_x$ = 16						; size = 8
__powf	PROC						; COMDAT
; File f:\0\luaspq-1.1\luaspq-1.1\src\lmathlibc.c
; Line 480
  00000	55		 push	 ebp
  00001	8b ec		 mov	 ebp, esp
; Line 481
  00003	f2 0f 10 5d 08	 movsd	 xmm3, QWORD PTR _a$[ebp]
  00008	83 ec 20	 sub	 esp, 32			; 00000020H
  0000b	f2 0f 10 25 00
	00 00 00	 movsd	 xmm4, QWORD PTR __real@3ff0000000000000
  00013	66 0f 28 d3	 movapd	 xmm2, xmm3
  00017	f2 0f 10 0d 00
	00 00 00	 movsd	 xmm1, QWORD PTR __real@4010000000000000
  0001f	f2 0f 5c d4	 subsd	 xmm2, xmm4
  00023	66 0f 28 c2	 movapd	 xmm0, xmm2
  00027	f2 0f 59 05 00
	00 00 00	 mulsd	 xmm0, QWORD PTR __real@3fe0000000000000
  0002f	f2 0f 58 c4	 addsd	 xmm0, xmm4
  00033	f2 0f 5e c8	 divsd	 xmm1, xmm0
  00037	66 0f 28 c4	 movapd	 xmm0, xmm4
  0003b	f2 0f 5e c3	 divsd	 xmm0, xmm3
  0003f	f2 0f 58 cc	 addsd	 xmm1, xmm4
  00043	f2 0f 58 c8	 addsd	 xmm1, xmm0
  00047	f2 0f 10 05 00
	00 00 00	 movsd	 xmm0, QWORD PTR __real@3e45798ee2308c3a
  0004f	f2 0f 59 ca	 mulsd	 xmm1, xmm2
  00053	f2 0f 5e 0d 00
	00 00 00	 divsd	 xmm1, QWORD PTR __real@4018000000000000
  0005b	f2 0f 11 4c 24
	18		 movsd	 QWORD PTR [esp+24], xmm1
  00061	f2 0f 11 44 24
	10		 movsd	 QWORD PTR [esp+16], xmm0
  00067	f2 0f 11 5c 24
	08		 movsd	 QWORD PTR [esp+8], xmm3
  0006d	f2 0f 11 24 24	 movsd	 QWORD PTR [esp], xmm4
  00072	e8 00 00 00 00	 call	 _asr_4
  00077	dd 5d 08	 fstp	 QWORD PTR tv217[ebp]
  0007a	f2 0f 10 4d 08	 movsd	 xmm1, QWORD PTR tv217[ebp]
  0007f	0f 57 c0	 xorps	 xmm0, xmm0
  00082	f2 0f 59 4d 10	 mulsd	 xmm1, QWORD PTR _x$[ebp]
  00087	83 c4 20	 add	 esp, 32			; 00000020H
  0008a	66 0f 2f c1	 comisd	 xmm0, xmm1
  0008e	76 32		 jbe	 SHORT $LN19@powf
  00090	66 0f 57 0d 00
	00 00 00	 xorpd	 xmm1, QWORD PTR __xmm@80000000000000008000000000000000
  00098	83 ec 08	 sub	 esp, 8
  0009b	f2 0f 11 0c 24	 movsd	 QWORD PTR [esp], xmm1
  000a0	e8 00 00 00 00	 call	 __exp
  000a5	f2 0f 10 05 00
	00 00 00	 movsd	 xmm0, QWORD PTR __real@3ff0000000000000
  000ad	83 c4 08	 add	 esp, 8
  000b0	dd 5d 08	 fstp	 QWORD PTR tv210[ebp]
  000b3	f2 0f 5e 45 08	 divsd	 xmm0, QWORD PTR tv210[ebp]
  000b8	f2 0f 11 45 08	 movsd	 QWORD PTR $T1[ebp], xmm0
  000bd	dd 45 08	 fld	 QWORD PTR $T1[ebp]
; Line 482
  000c0	5d		 pop	 ebp
  000c1	c3		 ret	 0
; Line 481
$LN19@powf:
  000c2	66 0f 2f c8	 comisd	 xmm1, xmm0
  000c6	56		 push	 esi
  000c7	f2 0f 2c f1	 cvttsd2si esi, xmm1
  000cb	73 01		 jae	 SHORT $LN22@powf
  000cd	4e		 dec	 esi
$LN22@powf:
  000ce	66 0f 6e c6	 movd	 xmm0, esi
  000d2	83 ec 08	 sub	 esp, 8
  000d5	f3 0f e6 c0	 cvtdq2pd xmm0, xmm0
  000d9	f2 0f 5c c8	 subsd	 xmm1, xmm0
  000dd	f2 0f 11 0c 24	 movsd	 QWORD PTR [esp], xmm1
  000e2	e8 00 00 00 00	 call	 _eee
  000e7	f2 0f 10 05 00
	00 00 00	 movsd	 xmm0, QWORD PTR __real@4005bf0a8b145769
  000ef	83 c4 08	 add	 esp, 8
  000f2	dd 5d 08	 fstp	 QWORD PTR tv201[ebp]
  000f5	56		 push	 esi
  000f6	83 ec 08	 sub	 esp, 8
  000f9	f2 0f 11 04 24	 movsd	 QWORD PTR [esp], xmm0
  000fe	e8 00 00 00 00	 call	 ___pow
  00103	f2 0f 10 45 08	 movsd	 xmm0, QWORD PTR tv201[ebp]
  00108	83 c4 0c	 add	 esp, 12			; 0000000cH
  0010b	dd 5d 10	 fstp	 QWORD PTR tv194[ebp]
  0010e	f2 0f 59 45 10	 mulsd	 xmm0, QWORD PTR tv194[ebp]
  00113	5e		 pop	 esi
  00114	f2 0f 11 45 08	 movsd	 QWORD PTR $T1[ebp], xmm0
  00119	dd 45 08	 fld	 QWORD PTR $T1[ebp]
; Line 482
  0011c	5d		 pop	 ebp
  0011d	c3		 ret	 0
__powf	ENDP
_TEXT	ENDS
; Function compile flags: /Ogtp
;	COMDAT __log2
_TEXT	SEGMENT
tv183 = -8						; size = 8
tv189 = 8						; size = 8
tv181 = 8						; size = 8
_n$ = 8							; size = 8
__log2	PROC						; COMDAT
; File f:\0\luaspq-1.1\luaspq-1.1\src\lmathlibc.c
; Line 265
  00000	55		 push	 ebp
  00001	8b ec		 mov	 ebp, esp
  00003	83 ec 08	 sub	 esp, 8
; Line 266
  00006	f2 0f 10 5d 08	 movsd	 xmm3, QWORD PTR _n$[ebp]
  0000b	83 ec 20	 sub	 esp, 32			; 00000020H
  0000e	f2 0f 10 25 00
	00 00 00	 movsd	 xmm4, QWORD PTR __real@3ff0000000000000
  00016	66 0f 28 d3	 movapd	 xmm2, xmm3
  0001a	f2 0f 10 0d 00
	00 00 00	 movsd	 xmm1, QWORD PTR __real@4010000000000000
  00022	f2 0f 5c d4	 subsd	 xmm2, xmm4
  00026	66 0f 28 c2	 movapd	 xmm0, xmm2
  0002a	f2 0f 59 05 00
	00 00 00	 mulsd	 xmm0, QWORD PTR __real@3fe0000000000000
  00032	f2 0f 58 c4	 addsd	 xmm0, xmm4
  00036	f2 0f 5e c8	 divsd	 xmm1, xmm0
  0003a	66 0f 28 c4	 movapd	 xmm0, xmm4
  0003e	f2 0f 5e c3	 divsd	 xmm0, xmm3
  00042	f2 0f 58 cc	 addsd	 xmm1, xmm4
  00046	f2 0f 58 c8	 addsd	 xmm1, xmm0
  0004a	f2 0f 10 05 00
	00 00 00	 movsd	 xmm0, QWORD PTR __real@3e45798ee2308c3a
  00052	f2 0f 59 ca	 mulsd	 xmm1, xmm2
  00056	f2 0f 5e 0d 00
	00 00 00	 divsd	 xmm1, QWORD PTR __real@4018000000000000
  0005e	f2 0f 11 4c 24
	18		 movsd	 QWORD PTR [esp+24], xmm1
  00064	f2 0f 11 44 24
	10		 movsd	 QWORD PTR [esp+16], xmm0
  0006a	f2 0f 11 5c 24
	08		 movsd	 QWORD PTR [esp+8], xmm3
  00070	f2 0f 11 24 24	 movsd	 QWORD PTR [esp], xmm4
  00075	e8 00 00 00 00	 call	 _asr_4
  0007a	0f 28 05 00 00
	00 00		 movaps	 xmm0, XMMWORD PTR __xmm@3fe638e38e38e38d3e45798ee2308c3a
  00081	0f 11 44 24 10	 movups	 XMMWORD PTR [esp+16], xmm0
  00086	0f 28 05 00 00
	00 00		 movaps	 xmm0, XMMWORD PTR __xmm@40000000000000003ff0000000000000
  0008d	dd 5d 08	 fstp	 QWORD PTR tv189[ebp]
  00090	0f 11 04 24	 movups	 XMMWORD PTR [esp], xmm0
  00094	e8 00 00 00 00	 call	 _asr_4
  00099	f2 0f 10 45 08	 movsd	 xmm0, QWORD PTR tv189[ebp]
  0009e	83 c4 20	 add	 esp, 32			; 00000020H
  000a1	dd 5d f8	 fstp	 QWORD PTR tv183[ebp]
  000a4	f2 0f 5e 45 f8	 divsd	 xmm0, QWORD PTR tv183[ebp]
  000a9	f2 0f 11 45 08	 movsd	 QWORD PTR tv181[ebp], xmm0
  000ae	dd 45 08	 fld	 QWORD PTR tv181[ebp]
; Line 267
  000b1	8b e5		 mov	 esp, ebp
  000b3	5d		 pop	 ebp
  000b4	c3		 ret	 0
__log2	ENDP
_TEXT	ENDS
; Function compile flags: /Ogtp
;	COMDAT __log
_TEXT	SEGMENT
_n$ = 8							; size = 8
__log	PROC						; COMDAT
; File f:\0\luaspq-1.1\luaspq-1.1\src\lmathlibc.c
; Line 261
  00000	55		 push	 ebp
  00001	8b ec		 mov	 ebp, esp
; Line 262
  00003	f2 0f 10 5d 08	 movsd	 xmm3, QWORD PTR _n$[ebp]
  00008	83 ec 20	 sub	 esp, 32			; 00000020H
  0000b	f2 0f 10 25 00
	00 00 00	 movsd	 xmm4, QWORD PTR __real@3ff0000000000000
  00013	66 0f 28 d3	 movapd	 xmm2, xmm3
  00017	f2 0f 10 0d 00
	00 00 00	 movsd	 xmm1, QWORD PTR __real@4010000000000000
  0001f	f2 0f 5c d4	 subsd	 xmm2, xmm4
  00023	66 0f 28 c2	 movapd	 xmm0, xmm2
  00027	f2 0f 59 05 00
	00 00 00	 mulsd	 xmm0, QWORD PTR __real@3fe0000000000000
  0002f	f2 0f 58 c4	 addsd	 xmm0, xmm4
  00033	f2 0f 5e c8	 divsd	 xmm1, xmm0
  00037	66 0f 28 c4	 movapd	 xmm0, xmm4
  0003b	f2 0f 5e c3	 divsd	 xmm0, xmm3
  0003f	f2 0f 58 cc	 addsd	 xmm1, xmm4
  00043	f2 0f 58 c8	 addsd	 xmm1, xmm0
  00047	f2 0f 10 05 00
	00 00 00	 movsd	 xmm0, QWORD PTR __real@3e45798ee2308c3a
  0004f	f2 0f 59 ca	 mulsd	 xmm1, xmm2
  00053	f2 0f 5e 0d 00
	00 00 00	 divsd	 xmm1, QWORD PTR __real@4018000000000000
  0005b	f2 0f 11 4c 24
	18		 movsd	 QWORD PTR [esp+24], xmm1
  00061	f2 0f 11 44 24
	10		 movsd	 QWORD PTR [esp+16], xmm0
  00067	f2 0f 11 5c 24
	08		 movsd	 QWORD PTR [esp+8], xmm3
  0006d	f2 0f 11 24 24	 movsd	 QWORD PTR [esp], xmm4
  00072	e8 00 00 00 00	 call	 _asr_4
  00077	83 c4 20	 add	 esp, 32			; 00000020H
; Line 263
  0007a	5d		 pop	 ebp
  0007b	c3		 ret	 0
__log	ENDP
_TEXT	ENDS
; Function compile flags: /Ogtp
;	COMDAT __log10
_TEXT	SEGMENT
tv184 = -8						; size = 8
tv189 = 8						; size = 8
tv182 = 8						; size = 8
_n$ = 8							; size = 8
__log10	PROC						; COMDAT
; File f:\0\luaspq-1.1\luaspq-1.1\src\lmathlibc.c
; Line 257
  00000	55		 push	 ebp
  00001	8b ec		 mov	 ebp, esp
  00003	83 ec 08	 sub	 esp, 8
; Line 258
  00006	f2 0f 10 5d 08	 movsd	 xmm3, QWORD PTR _n$[ebp]
  0000b	83 ec 20	 sub	 esp, 32			; 00000020H
  0000e	f2 0f 10 25 00
	00 00 00	 movsd	 xmm4, QWORD PTR __real@3ff0000000000000
  00016	66 0f 28 d3	 movapd	 xmm2, xmm3
  0001a	f2 0f 10 0d 00
	00 00 00	 movsd	 xmm1, QWORD PTR __real@4010000000000000
  00022	f2 0f 5c d4	 subsd	 xmm2, xmm4
  00026	66 0f 28 c2	 movapd	 xmm0, xmm2
  0002a	f2 0f 59 05 00
	00 00 00	 mulsd	 xmm0, QWORD PTR __real@3fe0000000000000
  00032	f2 0f 58 c4	 addsd	 xmm0, xmm4
  00036	f2 0f 5e c8	 divsd	 xmm1, xmm0
  0003a	66 0f 28 c4	 movapd	 xmm0, xmm4
  0003e	f2 0f 5e c3	 divsd	 xmm0, xmm3
  00042	f2 0f 58 cc	 addsd	 xmm1, xmm4
  00046	f2 0f 58 c8	 addsd	 xmm1, xmm0
  0004a	f2 0f 10 05 00
	00 00 00	 movsd	 xmm0, QWORD PTR __real@3e45798ee2308c3a
  00052	f2 0f 59 ca	 mulsd	 xmm1, xmm2
  00056	f2 0f 5e 0d 00
	00 00 00	 divsd	 xmm1, QWORD PTR __real@4018000000000000
  0005e	f2 0f 11 4c 24
	18		 movsd	 QWORD PTR [esp+24], xmm1
  00064	f2 0f 11 44 24
	10		 movsd	 QWORD PTR [esp+16], xmm0
  0006a	f2 0f 11 5c 24
	08		 movsd	 QWORD PTR [esp+8], xmm3
  00070	f2 0f 11 24 24	 movsd	 QWORD PTR [esp], xmm4
  00075	e8 00 00 00 00	 call	 _asr_4
  0007a	0f 28 05 00 00
	00 00		 movaps	 xmm0, XMMWORD PTR __xmm@4005ed61bed61bed3e45798ee2308c3a
  00081	0f 11 44 24 10	 movups	 XMMWORD PTR [esp+16], xmm0
  00086	0f 28 05 00 00
	00 00		 movaps	 xmm0, XMMWORD PTR __xmm@40240000000000003ff0000000000000
  0008d	dd 5d 08	 fstp	 QWORD PTR tv189[ebp]
  00090	0f 11 04 24	 movups	 XMMWORD PTR [esp], xmm0
  00094	e8 00 00 00 00	 call	 _asr_4
  00099	f2 0f 10 45 08	 movsd	 xmm0, QWORD PTR tv189[ebp]
  0009e	83 c4 20	 add	 esp, 32			; 00000020H
  000a1	dd 5d f8	 fstp	 QWORD PTR tv184[ebp]
  000a4	f2 0f 5e 45 f8	 divsd	 xmm0, QWORD PTR tv184[ebp]
  000a9	f2 0f 11 45 08	 movsd	 QWORD PTR tv182[ebp], xmm0
  000ae	dd 45 08	 fld	 QWORD PTR tv182[ebp]
; Line 259
  000b1	8b e5		 mov	 esp, ebp
  000b3	5d		 pop	 ebp
  000b4	c3		 ret	 0
__log10	ENDP
_TEXT	ENDS
; Function compile flags: /Ogtp
;	COMDAT __exp
_TEXT	SEGMENT
tv88 = -8						; size = 8
tv145 = 8						; size = 8
tv142 = 8						; size = 8
tv133 = 8						; size = 8
tv86 = 8						; size = 8
_x$ = 8							; size = 8
__exp	PROC						; COMDAT
; File f:\0\luaspq-1.1\luaspq-1.1\src\lmathlibc.c
; Line 236
  00000	55		 push	 ebp
  00001	8b ec		 mov	 ebp, esp
; Line 237
  00003	f2 0f 10 4d 08	 movsd	 xmm1, QWORD PTR _x$[ebp]
  00008	0f 57 c0	 xorps	 xmm0, xmm0
  0000b	83 ec 08	 sub	 esp, 8
  0000e	66 0f 2f c1	 comisd	 xmm0, xmm1
  00012	76 34		 jbe	 SHORT $LN1@exp
; Line 239
  00014	66 0f 57 0d 00
	00 00 00	 xorpd	 xmm1, QWORD PTR __xmm@80000000000000008000000000000000
  0001c	83 ec 08	 sub	 esp, 8
  0001f	f2 0f 11 0c 24	 movsd	 QWORD PTR [esp], xmm1
  00024	e8 00 00 00 00	 call	 __exp
  00029	f2 0f 10 05 00
	00 00 00	 movsd	 xmm0, QWORD PTR __real@3ff0000000000000
  00031	83 c4 08	 add	 esp, 8
  00034	dd 5d 08	 fstp	 QWORD PTR tv145[ebp]
  00037	f2 0f 5e 45 08	 divsd	 xmm0, QWORD PTR tv145[ebp]
  0003c	f2 0f 11 45 08	 movsd	 QWORD PTR tv142[ebp], xmm0
  00041	dd 45 08	 fld	 QWORD PTR tv142[ebp]
; Line 246
  00044	8b e5		 mov	 esp, ebp
  00046	5d		 pop	 ebp
  00047	c3		 ret	 0
$LN1@exp:
; Line 241
  00048	66 0f 2f c8	 comisd	 xmm1, xmm0
  0004c	56		 push	 esi
  0004d	f2 0f 2c f1	 cvttsd2si esi, xmm1
  00051	73 01		 jae	 SHORT $LN4@exp
  00053	4e		 dec	 esi
$LN4@exp:
; Line 244
  00054	66 0f 6e c6	 movd	 xmm0, esi
  00058	83 ec 08	 sub	 esp, 8
  0005b	f3 0f e6 c0	 cvtdq2pd xmm0, xmm0
  0005f	f2 0f 5c c8	 subsd	 xmm1, xmm0
  00063	f2 0f 11 0c 24	 movsd	 QWORD PTR [esp], xmm1
  00068	e8 00 00 00 00	 call	 _eee
  0006d	f2 0f 10 05 00
	00 00 00	 movsd	 xmm0, QWORD PTR __real@4005bf0a8b145769
  00075	83 c4 08	 add	 esp, 8
; Line 245
  00078	dd 5d 08	 fstp	 QWORD PTR tv133[ebp]
  0007b	56		 push	 esi
  0007c	83 ec 08	 sub	 esp, 8
  0007f	f2 0f 11 04 24	 movsd	 QWORD PTR [esp], xmm0
  00084	e8 00 00 00 00	 call	 ___pow
  00089	f2 0f 10 45 08	 movsd	 xmm0, QWORD PTR tv133[ebp]
  0008e	83 c4 0c	 add	 esp, 12			; 0000000cH
  00091	dd 5d f8	 fstp	 QWORD PTR tv88[ebp]
  00094	f2 0f 59 45 f8	 mulsd	 xmm0, QWORD PTR tv88[ebp]
  00099	5e		 pop	 esi
  0009a	f2 0f 11 45 08	 movsd	 QWORD PTR tv86[ebp], xmm0
  0009f	dd 45 08	 fld	 QWORD PTR tv86[ebp]
; Line 246
  000a2	8b e5		 mov	 esp, ebp
  000a4	5d		 pop	 ebp
  000a5	c3		 ret	 0
__exp	ENDP
_TEXT	ENDS
; Function compile flags: /Ogtp
;	COMDAT __round
_TEXT	SEGMENT
_f$ = -24						; size = 8
_x$1$ = -16						; size = 8
_u$1 = -8						; size = 8
_u$2 = -8						; size = 8
tv95 = 8						; size = 8
_u$3 = 8						; size = 8
_t$ = 8							; size = 8
_val$ = 8						; size = 8
_places$ = 16						; size = 4
__round	PROC						; COMDAT
; File f:\0\luaspq-1.1\luaspq-1.1\src\lmathlibc.c
; Line 210
  00000	55		 push	 ebp
  00001	8b ec		 mov	 ebp, esp
  00003	83 ec 18	 sub	 esp, 24			; 00000018H
; Line 212
  00006	ff 75 10	 push	 DWORD PTR _places$[ebp]
  00009	f2 0f 10 05 00
	00 00 00	 movsd	 xmm0, QWORD PTR __real@4024000000000000
  00011	83 ec 08	 sub	 esp, 8
  00014	f2 0f 11 04 24	 movsd	 QWORD PTR [esp], xmm0
  00019	e8 00 00 00 00	 call	 ___pow
  0001e	dd 5d e8	 fstp	 QWORD PTR _f$[ebp]
; Line 213
  00021	f2 0f 10 45 e8	 movsd	 xmm0, QWORD PTR _f$[ebp]
  00026	83 c4 0c	 add	 esp, 12			; 0000000cH
  00029	f2 0f 59 45 08	 mulsd	 xmm0, QWORD PTR _val$[ebp]
; Line 215
  0002e	f2 0f 11 45 f8	 movsd	 QWORD PTR _u$2[ebp], xmm0
  00033	8b 4d f8	 mov	 ecx, DWORD PTR _u$2[ebp]
  00036	8b 45 fc	 mov	 eax, DWORD PTR _u$2[ebp+4]
  00039	f2 0f 11 45 f0	 movsd	 QWORD PTR _x$1$[ebp], xmm0
  0003e	85 c9		 test	 ecx, ecx
  00040	75 12		 jne	 SHORT $LN29@round
  00042	3d 00 00 f0 7f	 cmp	 eax, 2146435072		; 7ff00000H
  00047	74 37		 je	 SHORT $LN5@round
  00049	85 c9		 test	 ecx, ecx
  0004b	75 07		 jne	 SHORT $LN29@round
  0004d	3d 00 00 f0 ff	 cmp	 eax, -1048576		; fff00000H
  00052	74 2c		 je	 SHORT $LN5@round
$LN29@round:
  00054	f2 0f 11 45 f8	 movsd	 QWORD PTR _u$1[ebp], xmm0
  00059	8b 4d f8	 mov	 ecx, DWORD PTR _u$1[ebp]
  0005c	8b 45 fc	 mov	 eax, DWORD PTR _u$1[ebp+4]
  0005f	85 c9		 test	 ecx, ecx
  00061	75 24		 jne	 SHORT $LN32@round
  00063	3d 00 00 f8 7f	 cmp	 eax, 2146959360		; 7ff80000H
  00068	74 16		 je	 SHORT $LN5@round
  0006a	85 c9		 test	 ecx, ecx
  0006c	75 19		 jne	 SHORT $LN32@round
  0006e	3d 00 00 f0 7f	 cmp	 eax, 2146435072		; 7ff00000H
  00073	74 0b		 je	 SHORT $LN5@round
  00075	85 c9		 test	 ecx, ecx
  00077	75 0e		 jne	 SHORT $LN32@round
  00079	3d 00 00 f8 ff	 cmp	 eax, -524288		; fff80000H
  0007e	75 07		 jne	 SHORT $LN32@round
$LN5@round:
; Line 216
  00080	dd 45 08	 fld	 QWORD PTR _val$[ebp]
; Line 235
  00083	8b e5		 mov	 esp, ebp
  00085	5d		 pop	 ebp
  00086	c3		 ret	 0
$LN32@round:
; Line 220
  00087	83 ec 08	 sub	 esp, 8
  0008a	66 0f 2f 05 00
	00 00 00	 comisd	 xmm0, QWORD PTR __real@0000000000000000
  00092	72 32		 jb	 SHORT $LN4@round
  00094	f2 0f 11 04 24	 movsd	 QWORD PTR [esp], xmm0
  00099	e8 00 00 00 00	 call	 __ceil
  0009e	dd 5d 08	 fstp	 QWORD PTR _t$[ebp]
; Line 221
  000a1	f2 0f 10 4d 08	 movsd	 xmm1, QWORD PTR _t$[ebp]
  000a6	83 c4 08	 add	 esp, 8
  000a9	66 0f 28 c1	 movapd	 xmm0, xmm1
  000ad	f2 0f 5c 45 f0	 subsd	 xmm0, QWORD PTR _x$1$[ebp]
  000b2	66 0f 2f 05 00
	00 00 00	 comisd	 xmm0, QWORD PTR __real@3fe0000000015fd8
  000ba	76 4a		 jbe	 SHORT $LN2@round
; Line 222
  000bc	f2 0f 5c 0d 00
	00 00 00	 subsd	 xmm1, QWORD PTR __real@3ff0000000000000
; Line 225
  000c4	eb 40		 jmp	 SHORT $LN2@round
$LN4@round:
; Line 226
  000c6	66 0f 57 05 00
	00 00 00	 xorpd	 xmm0, QWORD PTR __xmm@80000000000000008000000000000000
  000ce	f2 0f 11 04 24	 movsd	 QWORD PTR [esp], xmm0
  000d3	e8 00 00 00 00	 call	 __ceil
  000d8	dd 5d 08	 fstp	 QWORD PTR _t$[ebp]
; Line 227
  000db	f2 0f 10 4d 08	 movsd	 xmm1, QWORD PTR _t$[ebp]
  000e0	83 c4 08	 add	 esp, 8
  000e3	66 0f 28 c1	 movapd	 xmm0, xmm1
  000e7	f2 0f 58 45 f0	 addsd	 xmm0, QWORD PTR _x$1$[ebp]
  000ec	66 0f 2f 05 00
	00 00 00	 comisd	 xmm0, QWORD PTR __real@3fe0000000015fd8
  000f4	76 08		 jbe	 SHORT $LN1@round
; Line 228
  000f6	f2 0f 5c 0d 00
	00 00 00	 subsd	 xmm1, QWORD PTR __real@3ff0000000000000
$LN1@round:
; Line 230
  000fe	66 0f 57 0d 00
	00 00 00	 xorpd	 xmm1, QWORD PTR __xmm@80000000000000008000000000000000
$LN2@round:
; Line 232
  00106	66 0f 28 c1	 movapd	 xmm0, xmm1
  0010a	f2 0f 5e 45 e8	 divsd	 xmm0, QWORD PTR _f$[ebp]
; Line 234
  0010f	f2 0f 11 45 08	 movsd	 QWORD PTR _u$3[ebp], xmm0
  00114	8b 4d 08	 mov	 ecx, DWORD PTR _u$3[ebp]
  00117	8b 45 0c	 mov	 eax, DWORD PTR _u$3[ebp+4]
  0011a	85 c9		 test	 ecx, ecx
  0011c	75 29		 jne	 SHORT $LN35@round
  0011e	3d 00 00 f8 7f	 cmp	 eax, 2146959360		; 7ff80000H
  00123	74 16		 je	 SHORT $LN9@round
  00125	85 c9		 test	 ecx, ecx
  00127	75 1e		 jne	 SHORT $LN35@round
  00129	3d 00 00 f0 7f	 cmp	 eax, 2146435072		; 7ff00000H
  0012e	74 0b		 je	 SHORT $LN9@round
  00130	85 c9		 test	 ecx, ecx
  00132	75 13		 jne	 SHORT $LN35@round
  00134	3d 00 00 f8 ff	 cmp	 eax, -524288		; fff80000H
  00139	75 0c		 jne	 SHORT $LN35@round
$LN9@round:
  0013b	f2 0f 11 4d 08	 movsd	 QWORD PTR tv95[ebp], xmm1
  00140	dd 45 08	 fld	 QWORD PTR tv95[ebp]
; Line 235
  00143	8b e5		 mov	 esp, ebp
  00145	5d		 pop	 ebp
  00146	c3		 ret	 0
$LN35@round:
; Line 234
  00147	f2 0f 11 45 08	 movsd	 QWORD PTR tv95[ebp], xmm0
  0014c	dd 45 08	 fld	 QWORD PTR tv95[ebp]
; Line 235
  0014f	8b e5		 mov	 esp, ebp
  00151	5d		 pop	 ebp
  00152	c3		 ret	 0
__round	ENDP
_TEXT	ENDS
; Function compile flags: /Ogtp
;	COMDAT __ceil
_TEXT	SEGMENT
_y$ = 8							; size = 8
_x$ = 8							; size = 8
tv131 = 12						; size = 4
tv83 = 12						; size = 4
tv79 = 12						; size = 4
__ceil	PROC						; COMDAT
; File f:\0\luaspq-1.1\luaspq-1.1\src\lmathlibc.c
; Line 191
  00000	55		 push	 ebp
  00001	8b ec		 mov	 ebp, esp
; Line 192
  00003	f2 0f 10 45 08	 movsd	 xmm0, QWORD PTR _x$[ebp]
  00008	f2 0f 11 45 08	 movsd	 QWORD PTR _y$[ebp], xmm0
; Line 193
  0000d	f7 45 0c 00 00
	00 80		 test	 DWORD PTR _y$[ebp+4], -2147483648 ; 80000000H
  00014	74 15		 je	 SHORT $LN4@ceil
; Line 195
  00016	f2 0f 2c c0	 cvttsd2si eax, xmm0
  0001a	66 0f 6e c0	 movd	 xmm0, eax
  0001e	0f 5b c0	 cvtdq2ps xmm0, xmm0
  00021	f3 0f 11 45 0c	 movss	 DWORD PTR tv131[ebp], xmm0
  00026	d9 45 0c	 fld	 DWORD PTR tv131[ebp]
; Line 208
  00029	5d		 pop	 ebp
  0002a	c3		 ret	 0
$LN4@ceil:
; Line 199
  0002b	66 0f 2e 05 00
	00 00 00	 ucomisd xmm0, QWORD PTR __real@0000000000000000
  00033	9f		 lahf
  00034	f6 c4 44	 test	 ah, 68			; 00000044H
; Line 201
  00037	f2 0f 2c c0	 cvttsd2si eax, xmm0
  0003b	66 0f 6e c0	 movd	 xmm0, eax
  0003f	0f 5b c0	 cvtdq2ps xmm0, xmm0
  00042	7a 0a		 jp	 SHORT $LN2@ceil
  00044	f3 0f 11 45 0c	 movss	 DWORD PTR tv83[ebp], xmm0
  00049	d9 45 0c	 fld	 DWORD PTR tv83[ebp]
; Line 208
  0004c	5d		 pop	 ebp
  0004d	c3		 ret	 0
$LN2@ceil:
; Line 205
  0004e	f3 0f 58 05 00
	00 00 00	 addss	 xmm0, DWORD PTR __real@3f800000
  00056	f3 0f 11 45 0c	 movss	 DWORD PTR tv79[ebp], xmm0
  0005b	d9 45 0c	 fld	 DWORD PTR tv79[ebp]
; Line 208
  0005e	5d		 pop	 ebp
  0005f	c3		 ret	 0
__ceil	ENDP
_TEXT	ENDS
; Function compile flags: /Ogtp
;	COMDAT __floor
_TEXT	SEGMENT
_a$ = 8							; size = 8
__floor	PROC						; COMDAT
; File f:\0\luaspq-1.1\luaspq-1.1\src\lmathlibc.c
; Line 180
  00000	55		 push	 ebp
  00001	8b ec		 mov	 ebp, esp
; Line 182
  00003	f2 0f 10 45 08	 movsd	 xmm0, QWORD PTR _a$[ebp]
  00008	66 0f 2f 05 00
	00 00 00	 comisd	 xmm0, QWORD PTR __real@0000000000000000
; Line 183
  00010	f2 0f 2c c0	 cvttsd2si eax, xmm0
  00014	73 01		 jae	 SHORT $LN1@floor
; Line 186
  00016	48		 dec	 eax
$LN1@floor:
; Line 189
  00017	5d		 pop	 ebp
  00018	c3		 ret	 0
__floor	ENDP
_TEXT	ENDS
; Function compile flags: /Ogtp
;	COMDAT _radian_to_angle
_TEXT	SEGMENT
_rad$ = 8						; size = 8
_ang$ = 16						; size = 4
_radian_to_angle PROC					; COMDAT
; File f:\0\luaspq-1.1\luaspq-1.1\src\lmathlibc.c
; Line 166
  00000	55		 push	 ebp
  00001	8b ec		 mov	 ebp, esp
; Line 167
  00003	f2 0f 10 55 08	 movsd	 xmm2, QWORD PTR _rad$[ebp]
  00008	0f 57 c0	 xorps	 xmm0, xmm0
  0000b	66 0f 2f c2	 comisd	 xmm0, xmm2
  0000f	f2 0f 10 0d 00
	00 00 00	 movsd	 xmm1, QWORD PTR __real@bff0000000000000
  00017	76 06		 jbe	 SHORT $LN4@radian_to_
  00019	66 0f 28 d9	 movapd	 xmm3, xmm1
  0001d	eb 08		 jmp	 SHORT $LN5@radian_to_
$LN4@radian_to_:
  0001f	f2 0f 10 1d 00
	00 00 00	 movsd	 xmm3, QWORD PTR __real@3ff0000000000000
$LN5@radian_to_:
; Line 168
  00027	66 0f 2f c2	 comisd	 xmm0, xmm2
  0002b	76 04		 jbe	 SHORT $LN1@radian_to_
; Line 170
  0002d	f2 0f 59 d1	 mulsd	 xmm2, xmm1
$LN1@radian_to_:
; Line 172
  00031	f2 0f 59 15 00
	00 00 00	 mulsd	 xmm2, QWORD PTR __real@4066800000000000
; Line 176
  00039	8b 4d 10	 mov	 ecx, DWORD PTR _ang$[ebp]
  0003c	f2 0f 5e 15 00
	00 00 00	 divsd	 xmm2, QWORD PTR __real@400921fb54442d18
  00044	f2 0f 2c c2	 cvttsd2si eax, xmm2
  00048	66 0f 6e c0	 movd	 xmm0, eax
  0004c	f3 0f e6 c0	 cvtdq2pd xmm0, xmm0
  00050	f2 0f 5c d0	 subsd	 xmm2, xmm0
  00054	f2 0f 59 c3	 mulsd	 xmm0, xmm3
  00058	f2 0f 59 15 00
	00 00 00	 mulsd	 xmm2, QWORD PTR __real@404e000000000000
  00060	f2 0f 11 01	 movsd	 QWORD PTR [ecx], xmm0
  00064	f2 0f 2c c2	 cvttsd2si eax, xmm2
; Line 177
  00068	f2 0f 11 51 08	 movsd	 QWORD PTR [ecx+8], xmm2
  0006d	66 0f 6e c0	 movd	 xmm0, eax
  00071	f3 0f e6 c0	 cvtdq2pd xmm0, xmm0
  00075	f2 0f 5c d0	 subsd	 xmm2, xmm0
  00079	f2 0f 59 15 00
	00 00 00	 mulsd	 xmm2, QWORD PTR __real@404e000000000000
; Line 178
  00081	f2 0f 11 51 10	 movsd	 QWORD PTR [ecx+16], xmm2
; Line 179
  00086	5d		 pop	 ebp
  00087	c3		 ret	 0
_radian_to_angle ENDP
_TEXT	ENDS
; Function compile flags: /Ogtp
;	COMDAT _angle_to_radian
_TEXT	SEGMENT
tv135 = 8						; size = 8
_degree$ = 8						; size = 8
_min$ = 16						; size = 8
_second$ = 24						; size = 8
_angle_to_radian PROC					; COMDAT
; File f:\0\luaspq-1.1\luaspq-1.1\src\lmathlibc.c
; Line 154
  00000	55		 push	 ebp
  00001	8b ec		 mov	 ebp, esp
; Line 155
  00003	f2 0f 10 45 08	 movsd	 xmm0, QWORD PTR _degree$[ebp]
  00008	0f 57 c9	 xorps	 xmm1, xmm1
  0000b	66 0f 2f c8	 comisd	 xmm1, xmm0
  0000f	f2 0f 10 15 00
	00 00 00	 movsd	 xmm2, QWORD PTR __real@bff0000000000000
  00017	76 06		 jbe	 SHORT $LN4@angle_to_r
  00019	66 0f 28 da	 movapd	 xmm3, xmm2
  0001d	eb 08		 jmp	 SHORT $LN5@angle_to_r
$LN4@angle_to_r:
  0001f	f2 0f 10 1d 00
	00 00 00	 movsd	 xmm3, QWORD PTR __real@3ff0000000000000
$LN5@angle_to_r:
; Line 156
  00027	66 0f 2f c8	 comisd	 xmm1, xmm0
  0002b	76 04		 jbe	 SHORT $LN1@angle_to_r
; Line 158
  0002d	f2 0f 59 c2	 mulsd	 xmm0, xmm2
$LN1@angle_to_r:
; Line 160
  00031	f2 0f 10 4d 10	 movsd	 xmm1, QWORD PTR _min$[ebp]
  00036	f2 0f 5e 0d 00
	00 00 00	 divsd	 xmm1, QWORD PTR __real@404e000000000000
  0003e	f2 0f 58 c8	 addsd	 xmm1, xmm0
  00042	f2 0f 10 45 18	 movsd	 xmm0, QWORD PTR _second$[ebp]
  00047	f2 0f 5e 05 00
	00 00 00	 divsd	 xmm0, QWORD PTR __real@40ac200000000000
  0004f	f2 0f 58 c8	 addsd	 xmm1, xmm0
; Line 161
  00053	f2 0f 59 0d 00
	00 00 00	 mulsd	 xmm1, QWORD PTR __real@400921fb54442d18
  0005b	f2 0f 59 cb	 mulsd	 xmm1, xmm3
  0005f	f2 0f 5e 0d 00
	00 00 00	 divsd	 xmm1, QWORD PTR __real@4066800000000000
; Line 162
  00067	f2 0f 11 4d 08	 movsd	 QWORD PTR tv135[ebp], xmm1
  0006c	dd 45 08	 fld	 QWORD PTR tv135[ebp]
; Line 163
  0006f	5d		 pop	 ebp
  00070	c3		 ret	 0
_angle_to_radian ENDP
_TEXT	ENDS
; Function compile flags: /Ogtp
;	COMDAT __abs
_TEXT	SEGMENT
_value$ = 8						; size = 4
__abs	PROC						; COMDAT
; File f:\0\luaspq-1.1\luaspq-1.1\src\lmathlibc.c
; Line 484
  00000	55		 push	 ebp
  00001	8b ec		 mov	 ebp, esp
; Line 486
  00003	8b 45 08	 mov	 eax, DWORD PTR _value$[ebp]
  00006	3d 00 00 00 80	 cmp	 eax, -2147483648	; 80000000H
  0000b	76 02		 jbe	 SHORT $LN4@abs
  0000d	f7 d8		 neg	 eax
$LN4@abs:
; Line 487
  0000f	5d		 pop	 ebp
  00010	c3		 ret	 0
__abs	ENDP
_TEXT	ENDS
; Function compile flags: /Ogtp
;	COMDAT ___pow
_TEXT	SEGMENT
tv137 = -8						; size = 8
tv134 = -8						; size = 8
_tmp$1 = -8						; size = 8
_result$2 = -8						; size = 8
_x$ = 8							; size = 8
_y$ = 16						; size = 4
___pow	PROC						; COMDAT
; File f:\0\luaspq-1.1\luaspq-1.1\src\lmathlibc.c
; Line 51
  00000	55		 push	 ebp
  00001	8b ec		 mov	 ebp, esp
  00003	83 ec 08	 sub	 esp, 8
  00006	53		 push	 ebx
; Line 52
  00007	8b 5d 10	 mov	 ebx, DWORD PTR _y$[ebp]
  0000a	85 db		 test	 ebx, ebx
  0000c	75 07		 jne	 SHORT $LN10@pow
; Line 54
  0000e	d9 e8		 fld1
  00010	5b		 pop	 ebx
; Line 76
  00011	8b e5		 mov	 esp, ebp
  00013	5d		 pop	 ebp
  00014	c3		 ret	 0
$LN10@pow:
; Line 56
  00015	79 35		 jns	 SHORT $LN5@pow
; Line 58
  00017	f2 0f 10 45 08	 movsd	 xmm0, QWORD PTR _x$[ebp]
  0001c	f7 db		 neg	 ebx
  0001e	53		 push	 ebx
  0001f	83 ec 08	 sub	 esp, 8
  00022	f2 0f 11 04 24	 movsd	 QWORD PTR [esp], xmm0
  00027	e8 00 00 00 00	 call	 ___pow
  0002c	f2 0f 10 05 00
	00 00 00	 movsd	 xmm0, QWORD PTR __real@3ff0000000000000
  00034	83 c4 0c	 add	 esp, 12			; 0000000cH
  00037	dd 5d f8	 fstp	 QWORD PTR tv137[ebp]
  0003a	f2 0f 5e 45 f8	 divsd	 xmm0, QWORD PTR tv137[ebp]
  0003f	5b		 pop	 ebx
  00040	f2 0f 11 45 f8	 movsd	 QWORD PTR tv134[ebp], xmm0
  00045	dd 45 f8	 fld	 QWORD PTR tv134[ebp]
; Line 76
  00048	8b e5		 mov	 esp, ebp
  0004a	5d		 pop	 ebp
  0004b	c3		 ret	 0
$LN5@pow:
; Line 62
  0004c	83 fb 01	 cmp	 ebx, 1
  0004f	75 08		 jne	 SHORT $LN3@pow
  00051	dd 45 08	 fld	 QWORD PTR _x$[ebp]
  00054	5b		 pop	 ebx
; Line 76
  00055	8b e5		 mov	 esp, ebp
  00057	5d		 pop	 ebp
  00058	c3		 ret	 0
$LN3@pow:
; Line 64
  00059	f2 0f 10 45 08	 movsd	 xmm0, QWORD PTR _x$[ebp]
  0005e	8b c3		 mov	 eax, ebx
  00060	99		 cdq
  00061	2b c2		 sub	 eax, edx
  00063	d1 f8		 sar	 eax, 1
  00065	50		 push	 eax
  00066	83 ec 08	 sub	 esp, 8
  00069	f2 0f 11 04 24	 movsd	 QWORD PTR [esp], xmm0
  0006e	e8 00 00 00 00	 call	 ___pow
  00073	83 c4 0c	 add	 esp, 12			; 0000000cH
  00076	dd 5d f8	 fstp	 QWORD PTR _tmp$1[ebp]
; Line 65
  00079	f6 c3 01	 test	 bl, 1
  0007c	74 1c		 je	 SHORT $LN2@pow
; Line 67
  0007e	f2 0f 10 4d f8	 movsd	 xmm1, QWORD PTR _tmp$1[ebp]
  00083	f2 0f 59 4d 08	 mulsd	 xmm1, QWORD PTR _x$[ebp]
  00088	5b		 pop	 ebx
  00089	f2 0f 59 4d f8	 mulsd	 xmm1, QWORD PTR _tmp$1[ebp]
  0008e	f2 0f 11 4d f8	 movsd	 QWORD PTR _result$2[ebp], xmm1
; Line 74
  00093	dd 45 f8	 fld	 QWORD PTR _result$2[ebp]
; Line 76
  00096	8b e5		 mov	 esp, ebp
  00098	5d		 pop	 ebp
  00099	c3		 ret	 0
$LN2@pow:
; Line 71
  0009a	f2 0f 10 45 f8	 movsd	 xmm0, QWORD PTR _tmp$1[ebp]
  0009f	f2 0f 59 c0	 mulsd	 xmm0, xmm0
  000a3	5b		 pop	 ebx
  000a4	f2 0f 11 45 f8	 movsd	 QWORD PTR _result$2[ebp], xmm0
; Line 74
  000a9	dd 45 f8	 fld	 QWORD PTR _result$2[ebp]
; Line 76
  000ac	8b e5		 mov	 esp, ebp
  000ae	5d		 pop	 ebp
  000af	c3		 ret	 0
___pow	ENDP
_TEXT	ENDS
; Function compile flags: /Ogtp
;	COMDAT _sqrt_1
_TEXT	SEGMENT
_x$ = -8						; size = 8
_a$ = 8							; size = 8
_sqrt_1	PROC						; COMDAT
; File f:\0\luaspq-1.1\luaspq-1.1\src\lmathlibc.c
; Line 141
  00000	55		 push	 ebp
  00001	8b ec		 mov	 ebp, esp
  00003	83 ec 08	 sub	 esp, 8
; Line 144
  00006	f2 0f 10 5d 08	 movsd	 xmm3, QWORD PTR _a$[ebp]
  0000b	0f 57 c0	 xorps	 xmm0, xmm0
  0000e	f2 0f 10 25 00
	00 00 00	 movsd	 xmm4, QWORD PTR __real@3fe0000000000000
  00016	66 0f 28 d3	 movapd	 xmm2, xmm3
  0001a	f2 0f 59 d4	 mulsd	 xmm2, xmm4
  0001e	f2 0f 11 45 f8	 movsd	 QWORD PTR _x$[ebp], xmm0
; Line 145
  00023	66 0f 2e c2	 ucomisd xmm0, xmm2
  00027	9f		 lahf
  00028	f6 c4 44	 test	 ah, 68			; 00000044H
  0002b	7b 26		 jnp	 SHORT $LN9@sqrt_1
  0002d	8d 49 00	 npad	 3
$LL2@sqrt_1:
; Line 148
  00030	66 0f 28 c3	 movapd	 xmm0, xmm3
  00034	66 0f 28 ca	 movapd	 xmm1, xmm2
  00038	f2 0f 5e c2	 divsd	 xmm0, xmm2
  0003c	f2 0f 11 4d f8	 movsd	 QWORD PTR _x$[ebp], xmm1
  00041	f2 0f 58 d0	 addsd	 xmm2, xmm0
  00045	f2 0f 59 d4	 mulsd	 xmm2, xmm4
  00049	66 0f 2e ca	 ucomisd xmm1, xmm2
  0004d	9f		 lahf
  0004e	f6 c4 44	 test	 ah, 68			; 00000044H
  00051	7a dd		 jp	 SHORT $LL2@sqrt_1
$LN9@sqrt_1:
; Line 150
  00053	dd 45 f8	 fld	 QWORD PTR _x$[ebp]
; Line 151
  00056	8b e5		 mov	 esp, ebp
  00058	5d		 pop	 ebp
  00059	c3		 ret	 0
_sqrt_1	ENDP
_TEXT	ENDS
; Function compile flags: /Ogtp
;	COMDAT _sqrt_2
_TEXT	SEGMENT
_x$ = -8						; size = 8
_a$ = 8							; size = 4
_sqrt_2	PROC						; COMDAT
; File f:\0\luaspq-1.1\luaspq-1.1\src\lmathlibc.c
; Line 129
  00000	55		 push	 ebp
  00001	8b ec		 mov	 ebp, esp
  00003	83 ec 08	 sub	 esp, 8
; Line 132
  00006	f3 0f 10 5d 08	 movss	 xmm3, DWORD PTR _a$[ebp]
  0000b	0f 57 d2	 xorps	 xmm2, xmm2
  0000e	0f 28 c3	 movaps	 xmm0, xmm3
  00011	0f 57 c9	 xorps	 xmm1, xmm1
  00014	f3 0f 59 05 00
	00 00 00	 mulss	 xmm0, DWORD PTR __real@3f000000
  0001c	f2 0f 11 4d f8	 movsd	 QWORD PTR _x$[ebp], xmm1
  00021	f3 0f 5a d0	 cvtss2sd xmm2, xmm0
; Line 133
  00025	66 0f 2e ca	 ucomisd xmm1, xmm2
  00029	9f		 lahf
  0002a	f6 c4 44	 test	 ah, 68			; 00000044H
  0002d	7b 37		 jnp	 SHORT $LN9@sqrt_2
  0002f	f2 0f 10 25 00
	00 00 00	 movsd	 xmm4, QWORD PTR __real@3fe0000000000000
  00037	eb 07 8d a4 24
	00 00 00 00	 npad	 9
$LL2@sqrt_2:
  00040	0f 57 c0	 xorps	 xmm0, xmm0
; Line 135
  00043	66 0f 28 ca	 movapd	 xmm1, xmm2
; Line 136
  00047	f3 0f 5a c3	 cvtss2sd xmm0, xmm3
  0004b	f2 0f 11 4d f8	 movsd	 QWORD PTR _x$[ebp], xmm1
  00050	f2 0f 5e c2	 divsd	 xmm0, xmm2
  00054	f2 0f 58 d0	 addsd	 xmm2, xmm0
  00058	f2 0f 59 d4	 mulsd	 xmm2, xmm4
  0005c	66 0f 2e ca	 ucomisd xmm1, xmm2
  00060	9f		 lahf
  00061	f6 c4 44	 test	 ah, 68			; 00000044H
  00064	7a da		 jp	 SHORT $LL2@sqrt_2
$LN9@sqrt_2:
; Line 138
  00066	dd 45 f8	 fld	 QWORD PTR _x$[ebp]
; Line 139
  00069	8b e5		 mov	 esp, ebp
  0006b	5d		 pop	 ebp
  0006c	c3		 ret	 0
_sqrt_2	ENDP
_TEXT	ENDS
; Function compile flags: /Ogtp
;	COMDAT __tan
_TEXT	SEGMENT
tv145 = -16						; size = 8
tv139 = -16						; size = 8
tv163 = -8						; size = 8
_t$ = 8							; size = 8
__tan	PROC						; COMDAT
; File f:\0\luaspq-1.1\luaspq-1.1\src\lmathlibc.c
; Line 121
  00000	55		 push	 ebp
  00001	8b ec		 mov	 ebp, esp
; Line 122
  00003	f2 0f 10 55 08	 movsd	 xmm2, QWORD PTR _t$[ebp]
  00008	83 ec 10	 sub	 esp, 16			; 00000010H
  0000b	66 0f 2f 15 00
	00 00 00	 comisd	 xmm2, QWORD PTR __real@0000000000000000
  00013	66 0f 28 ca	 movapd	 xmm1, xmm2
  00017	77 08		 ja	 SHORT $LN26@tan
  00019	66 0f 57 0d 00
	00 00 00	 xorpd	 xmm1, QWORD PTR __xmm@80000000000000008000000000000000
$LN26@tan:
  00021	f2 0f 5c 0d 00
	00 00 00	 subsd	 xmm1, QWORD PTR __real@4056800000000000
  00029	66 0f 28 c1	 movapd	 xmm0, xmm1
  0002d	f2 0f 5e 05 00
	00 00 00	 divsd	 xmm0, QWORD PTR __real@4066800000000000
  00035	f2 0f 2c c0	 cvttsd2si eax, xmm0
  00039	69 c0 b4 00 00
	00		 imul	 eax, eax, 180
  0003f	66 0f 6e c0	 movd	 xmm0, eax
  00043	f3 0f e6 c0	 cvtdq2pd xmm0, xmm0
  00047	66 0f 2e c8	 ucomisd xmm1, xmm0
  0004b	9f		 lahf
  0004c	f6 c4 44	 test	 ah, 68			; 00000044H
  0004f	7a 0a		 jp	 SHORT $LN1@tan
; Line 124
  00051	dd 05 00 00 00
	00		 fld	 QWORD PTR __real@7ff0000000000000
; Line 127
  00057	8b e5		 mov	 esp, ebp
  00059	5d		 pop	 ebp
  0005a	c3		 ret	 0
$LN1@tan:
; Line 126
  0005b	83 ec 08	 sub	 esp, 8
  0005e	f2 0f 11 14 24	 movsd	 QWORD PTR [esp], xmm2
  00063	e8 00 00 00 00	 call	 __sin
  00068	f2 0f 10 45 08	 movsd	 xmm0, QWORD PTR _t$[ebp]
  0006d	dd 5d f8	 fstp	 QWORD PTR tv163[ebp]
  00070	f2 0f 11 04 24	 movsd	 QWORD PTR [esp], xmm0
  00075	e8 00 00 00 00	 call	 __cos
  0007a	f2 0f 10 45 f8	 movsd	 xmm0, QWORD PTR tv163[ebp]
  0007f	83 c4 08	 add	 esp, 8
  00082	dd 5d f0	 fstp	 QWORD PTR tv145[ebp]
  00085	f2 0f 5e 45 f0	 divsd	 xmm0, QWORD PTR tv145[ebp]
  0008a	f2 0f 11 45 f0	 movsd	 QWORD PTR tv139[ebp], xmm0
  0008f	dd 45 f0	 fld	 QWORD PTR tv139[ebp]
; Line 127
  00092	8b e5		 mov	 esp, ebp
  00094	5d		 pop	 ebp
  00095	c3		 ret	 0
__tan	ENDP
_TEXT	ENDS
; Function compile flags: /Ogtp
;	COMDAT __cos
_TEXT	SEGMENT
_t$ = 8							; size = 8
__cos	PROC						; COMDAT
; File f:\0\luaspq-1.1\luaspq-1.1\src\lmathlibc.c
; Line 103
  00000	55		 push	 ebp
  00001	8b ec		 mov	 ebp, esp
; Line 104
  00003	f2 0f 10 4d 08	 movsd	 xmm1, QWORD PTR _t$[ebp]
  00008	0f 57 e4	 xorps	 xmm4, xmm4
  0000b	66 0f 2f cc	 comisd	 xmm1, xmm4
  0000f	66 0f 28 d1	 movapd	 xmm2, xmm1
  00013	77 08		 ja	 SHORT $LN22@cos
  00015	66 0f 57 15 00
	00 00 00	 xorpd	 xmm2, QWORD PTR __xmm@80000000000000008000000000000000
$LN22@cos:
  0001d	f2 0f 5c 15 00
	00 00 00	 subsd	 xmm2, QWORD PTR __real@4056800000000000
  00025	66 0f 28 c2	 movapd	 xmm0, xmm2
  00029	f2 0f 5e 05 00
	00 00 00	 divsd	 xmm0, QWORD PTR __real@4066800000000000
  00031	f2 0f 2c c0	 cvttsd2si eax, xmm0
  00035	69 c0 b4 00 00
	00		 imul	 eax, eax, 180
  0003b	66 0f 6e c0	 movd	 xmm0, eax
  0003f	f3 0f e6 c0	 cvtdq2pd xmm0, xmm0
  00043	66 0f 2e d0	 ucomisd xmm2, xmm0
  00047	9f		 lahf
  00048	f6 c4 44	 test	 ah, 68			; 00000044H
  0004b	7a 04		 jp	 SHORT $LN1@cos
; Line 106
  0004d	d9 ee		 fldz
; Line 119
  0004f	5d		 pop	 ebp
  00050	c3		 ret	 0
$LN1@cos:
; Line 109
  00051	66 0f 2f cc	 comisd	 xmm1, xmm4
  00055	f2 0f 2c c1	 cvttsd2si eax, xmm1
  00059	73 01		 jae	 SHORT $LN27@cos
  0005b	48		 dec	 eax
$LN27@cos:
; Line 110
  0005c	f2 0f 10 35 00
	00 00 00	 movsd	 xmm6, QWORD PTR __real@404e000000000000
  00064	66 0f 6e d0	 movd	 xmm2, eax
  00068	f3 0f e6 d2	 cvtdq2pd xmm2, xmm2
  0006c	f2 0f 5c ca	 subsd	 xmm1, xmm2
  00070	f2 0f 59 ce	 mulsd	 xmm1, xmm6
; Line 111
  00074	66 0f 2f cc	 comisd	 xmm1, xmm4
  00078	f2 0f 2c c1	 cvttsd2si eax, xmm1
  0007c	73 01		 jae	 SHORT $LN31@cos
  0007e	48		 dec	 eax
$LN31@cos:
; Line 113
  0007f	66 0f 2f e2	 comisd	 xmm4, xmm2
  00083	f2 0f 10 3d 00
	00 00 00	 movsd	 xmm7, QWORD PTR __real@3ff0000000000000
  0008b	f2 0f 10 2d 00
	00 00 00	 movsd	 xmm5, QWORD PTR __real@bff0000000000000
  00093	66 0f 6e c0	 movd	 xmm0, eax
  00097	f3 0f e6 c0	 cvtdq2pd xmm0, xmm0
  0009b	f2 0f 5c c8	 subsd	 xmm1, xmm0
  0009f	f2 0f 59 ce	 mulsd	 xmm1, xmm6
  000a3	76 06		 jbe	 SHORT $LN38@cos
  000a5	66 0f 28 dd	 movapd	 xmm3, xmm5
  000a9	eb 04		 jmp	 SHORT $LN39@cos
$LN38@cos:
  000ab	66 0f 28 df	 movapd	 xmm3, xmm7
$LN39@cos:
  000af	66 0f 2f e2	 comisd	 xmm4, xmm2
  000b3	76 04		 jbe	 SHORT $LN35@cos
  000b5	f2 0f 59 d5	 mulsd	 xmm2, xmm5
$LN35@cos:
  000b9	f2 0f 5e 0d 00
	00 00 00	 divsd	 xmm1, QWORD PTR __real@40ac200000000000
  000c1	f2 0f 5e c6	 divsd	 xmm0, xmm6
  000c5	f2 0f 58 c2	 addsd	 xmm0, xmm2
  000c9	f2 0f 10 15 00
	00 00 00	 movsd	 xmm2, QWORD PTR __real@400921fb54442d18
  000d1	f2 0f 58 c1	 addsd	 xmm0, xmm1
  000d5	f2 0f 10 0d 00
	00 00 00	 movsd	 xmm1, QWORD PTR __real@4066800000000000
  000dd	f2 0f 59 c2	 mulsd	 xmm0, xmm2
  000e1	f2 0f 59 c3	 mulsd	 xmm0, xmm3
; Line 115
  000e5	f2 0f 10 1d 00
	00 00 00	 movsd	 xmm3, QWORD PTR __real@3ff921fb54442d18
  000ed	f2 0f 5e c1	 divsd	 xmm0, xmm1
  000f1	f2 0f 5c d8	 subsd	 xmm3, xmm0
  000f5	66 0f 2f e3	 comisd	 xmm4, xmm3
  000f9	76 07		 jbe	 SHORT $LN40@cos
  000fb	0f 28 fd	 movaps	 xmm7, xmm5
  000fe	f2 0f 59 dd	 mulsd	 xmm3, xmm5
$LN40@cos:
  00102	f2 0f 59 d9	 mulsd	 xmm3, xmm1
; Line 117
  00106	83 ec 08	 sub	 esp, 8
  00109	f2 0f 5e da	 divsd	 xmm3, xmm2
  0010d	f2 0f 2c c3	 cvttsd2si eax, xmm3
  00111	66 0f 6e d0	 movd	 xmm2, eax
  00115	f3 0f e6 d2	 cvtdq2pd xmm2, xmm2
  00119	f2 0f 5c da	 subsd	 xmm3, xmm2
  0011d	f2 0f 59 d7	 mulsd	 xmm2, xmm7
  00121	f2 0f 59 de	 mulsd	 xmm3, xmm6
  00125	f2 0f 2c c3	 cvttsd2si eax, xmm3
  00129	0f 28 cb	 movaps	 xmm1, xmm3
  0012c	f2 0f 5e de	 divsd	 xmm3, xmm6
  00130	66 0f 6e c0	 movd	 xmm0, eax
  00134	f3 0f e6 c0	 cvtdq2pd xmm0, xmm0
  00138	f2 0f 58 da	 addsd	 xmm3, xmm2
  0013c	f2 0f 5c c8	 subsd	 xmm1, xmm0
  00140	f2 0f 59 ce	 mulsd	 xmm1, xmm6
  00144	f2 0f 5e 0d 00
	00 00 00	 divsd	 xmm1, QWORD PTR __real@40ac200000000000
  0014c	f2 0f 58 d9	 addsd	 xmm3, xmm1
  00150	f2 0f 11 1c 24	 movsd	 QWORD PTR [esp], xmm3
  00155	e8 00 00 00 00	 call	 __sin
  0015a	83 c4 08	 add	 esp, 8
; Line 119
  0015d	5d		 pop	 ebp
  0015e	c3		 ret	 0
__cos	ENDP
_TEXT	ENDS
; Function compile flags: /Ogtp
;	COMDAT __sin
_TEXT	SEGMENT
_t$2$ = -36						; size = 8
_result$ = -28						; size = 8
_a$ = -20						; size = 8
_result$1$ = -12					; size = 8
_flag$1$ = -1						; size = 1
_t$ = 8							; size = 8
__sin	PROC						; COMDAT
; File f:\0\luaspq-1.1\luaspq-1.1\src\lmathlibc.c
; Line 77
  00000	55		 push	 ebp
  00001	8b ec		 mov	 ebp, esp
; Line 78
  00003	f2 0f 10 55 08	 movsd	 xmm2, QWORD PTR _t$[ebp]
  00008	83 ec 24	 sub	 esp, 36			; 00000024H
  0000b	66 0f 2f 15 00
	00 00 00	 comisd	 xmm2, QWORD PTR __real@0000000000000000
  00013	66 0f 28 ca	 movapd	 xmm1, xmm2
  00017	77 08		 ja	 SHORT $LN23@sin
  00019	66 0f 57 0d 00
	00 00 00	 xorpd	 xmm1, QWORD PTR __xmm@80000000000000008000000000000000
$LN23@sin:
  00021	f2 0f 10 1d 00
	00 00 00	 movsd	 xmm3, QWORD PTR __real@4066800000000000
  00029	f2 0f 5c cb	 subsd	 xmm1, xmm3
  0002d	66 0f 28 c1	 movapd	 xmm0, xmm1
  00031	f2 0f 5e c3	 divsd	 xmm0, xmm3
  00035	f2 0f 2c c0	 cvttsd2si eax, xmm0
  00039	69 c0 b4 00 00
	00		 imul	 eax, eax, 180
  0003f	66 0f 6e c0	 movd	 xmm0, eax
  00043	f3 0f e6 c0	 cvtdq2pd xmm0, xmm0
  00047	66 0f 2e c8	 ucomisd xmm1, xmm0
  0004b	9f		 lahf
  0004c	f6 c4 44	 test	 ah, 68			; 00000044H
  0004f	7a 06		 jp	 SHORT $LN6@sin
; Line 80
  00051	d9 ee		 fldz
; Line 101
  00053	8b e5		 mov	 esp, ebp
  00055	5d		 pop	 ebp
  00056	c3		 ret	 0
$LN6@sin:
; Line 83
  00057	f2 0f 5e da	 divsd	 xmm3, xmm2
  0005b	56		 push	 esi
  0005c	be 03 00 00 00	 mov	 esi, 3
  00061	c6 45 ff 01	 mov	 BYTE PTR _flag$1$[ebp], 1
  00065	f2 0f 10 05 00
	00 00 00	 movsd	 xmm0, QWORD PTR __real@400921fb54442d18
  0006d	f2 0f 5e c3	 divsd	 xmm0, xmm3
  00071	f2 0f 11 45 dc	 movsd	 QWORD PTR _t$2$[ebp], xmm0
; Line 84
  00076	f2 0f 11 45 f4	 movsd	 QWORD PTR _result$1$[ebp], xmm0
  0007b	eb 03 8d 49 00	 npad	 5
$LL5@sin:
; Line 89
  00080	56		 push	 esi
  00081	83 ec 08	 sub	 esp, 8
  00084	f2 0f 11 04 24	 movsd	 QWORD PTR [esp], xmm0
  00089	e8 00 00 00 00	 call	 ___pow
; Line 90
  0008e	ba 01 00 00 00	 mov	 edx, 1
  00093	83 c4 0c	 add	 esp, 12			; 0000000cH
  00096	8b ca		 mov	 ecx, edx
  00098	dd 5d ec	 fstp	 QWORD PTR _a$[ebp]
  0009b	3b f2		 cmp	 esi, edx
  0009d	7e 09		 jle	 SHORT $LN32@sin
  0009f	90		 npad	 1
$LL41@sin:
  000a0	41		 inc	 ecx
  000a1	0f af d1	 imul	 edx, ecx
  000a4	3b ce		 cmp	 ecx, esi
  000a6	7c f8		 jl	 SHORT $LL41@sin
$LN32@sin:
; Line 91
  000a8	80 7d ff 00	 cmp	 BYTE PTR _flag$1$[ebp], 0
; Line 92
  000ac	f2 0f 10 45 ec	 movsd	 xmm0, QWORD PTR _a$[ebp]
  000b1	66 0f 6e ca	 movd	 xmm1, edx
  000b5	f3 0f e6 c9	 cvtdq2pd xmm1, xmm1
  000b9	f2 0f 5e c1	 divsd	 xmm0, xmm1
  000bd	74 19		 je	 SHORT $LN2@sin
  000bf	f2 0f 10 4d f4	 movsd	 xmm1, QWORD PTR _result$1$[ebp]
  000c4	f2 0f 5c c8	 subsd	 xmm1, xmm0
; Line 93
  000c8	c6 45 ff 00	 mov	 BYTE PTR _flag$1$[ebp], 0
  000cc	f2 0f 11 4d f4	 movsd	 QWORD PTR _result$1$[ebp], xmm1
  000d1	f2 0f 11 4d e4	 movsd	 QWORD PTR _result$[ebp], xmm1
; Line 95
  000d6	eb 13		 jmp	 SHORT $LN4@sin
$LN2@sin:
; Line 96
  000d8	f2 0f 58 45 f4	 addsd	 xmm0, QWORD PTR _result$1$[ebp]
; Line 97
  000dd	c6 45 ff 01	 mov	 BYTE PTR _flag$1$[ebp], 1
  000e1	f2 0f 11 45 f4	 movsd	 QWORD PTR _result$1$[ebp], xmm0
  000e6	f2 0f 11 45 e4	 movsd	 QWORD PTR _result$[ebp], xmm0
$LN4@sin:
; Line 87
  000eb	f2 0f 10 45 dc	 movsd	 xmm0, QWORD PTR _t$2$[ebp]
  000f0	83 c6 02	 add	 esi, 2
  000f3	83 fe 1b	 cmp	 esi, 27			; 0000001bH
  000f6	7c 88		 jl	 SHORT $LL5@sin
; Line 100
  000f8	dd 45 e4	 fld	 QWORD PTR _result$[ebp]
  000fb	5e		 pop	 esi
; Line 101
  000fc	8b e5		 mov	 esp, ebp
  000fe	5d		 pop	 ebp
  000ff	c3		 ret	 0
__sin	ENDP
_TEXT	ENDS
; Function compile flags: /Ogtp
;	COMDAT _CheckDegree
_TEXT	SEGMENT
_degree$ = 8						; size = 8
_type$ = 16						; size = 4
_CheckDegree PROC					; COMDAT
; File f:\0\luaspq-1.1\luaspq-1.1\src\lmathlibc.c
; Line 17
  00000	55		 push	 ebp
  00001	8b ec		 mov	 ebp, esp
; Line 20
  00003	8b 45 10	 mov	 eax, DWORD PTR _type$[ebp]
  00006	83 e8 00	 sub	 eax, 0
  00009	74 4d		 je	 SHORT $LN7@CheckDegre
  0000b	48		 dec	 eax
  0000c	74 07		 je	 SHORT $LN5@CheckDegre
  0000e	48		 dec	 eax
  0000f	0f 85 8e 00 00
	00		 jne	 $LN6@CheckDegre
$LN5@CheckDegre:
; Line 39
  00015	f2 0f 10 4d 08	 movsd	 xmm1, QWORD PTR _degree$[ebp]
  0001a	66 0f 2f 0d 00
	00 00 00	 comisd	 xmm1, QWORD PTR __real@0000000000000000
  00022	77 08		 ja	 SHORT $LN23@CheckDegre
  00024	66 0f 57 0d 00
	00 00 00	 xorpd	 xmm1, QWORD PTR __xmm@80000000000000008000000000000000
$LN23@CheckDegre:
  0002c	f2 0f 5c 0d 00
	00 00 00	 subsd	 xmm1, QWORD PTR __real@4056800000000000
; Line 40
  00034	66 0f 28 c1	 movapd	 xmm0, xmm1
  00038	f2 0f 5e 05 00
	00 00 00	 divsd	 xmm0, QWORD PTR __real@4066800000000000
  00040	f2 0f 2c c0	 cvttsd2si eax, xmm0
; Line 41
  00044	69 c0 b4 00 00
	00		 imul	 eax, eax, 180
  0004a	66 0f 6e c0	 movd	 xmm0, eax
  0004e	f3 0f e6 c0	 cvtdq2pd xmm0, xmm0
  00052	66 0f 2e c8	 ucomisd xmm1, xmm0
; Line 45
  00056	eb 41		 jmp	 SHORT $LN26@CheckDegre
$LN7@CheckDegre:
; Line 23
  00058	f2 0f 10 55 08	 movsd	 xmm2, QWORD PTR _degree$[ebp]
  0005d	66 0f 2f 15 00
	00 00 00	 comisd	 xmm2, QWORD PTR __real@0000000000000000
  00065	77 08		 ja	 SHORT $LN15@CheckDegre
  00067	66 0f 57 15 00
	00 00 00	 xorpd	 xmm2, QWORD PTR __xmm@80000000000000008000000000000000
$LN15@CheckDegre:
  0006f	f2 0f 5c 15 00
	00 00 00	 subsd	 xmm2, QWORD PTR __real@4066800000000000
; Line 24
  00077	66 0f 28 c2	 movapd	 xmm0, xmm2
  0007b	f2 0f 5e 05 00
	00 00 00	 divsd	 xmm0, QWORD PTR __real@4066800000000000
  00083	f2 0f 2c c0	 cvttsd2si eax, xmm0
; Line 25
  00087	69 c0 b4 00 00
	00		 imul	 eax, eax, 180
  0008d	66 0f 6e c0	 movd	 xmm0, eax
  00091	f3 0f e6 c0	 cvtdq2pd xmm0, xmm0
  00095	66 0f 2e d0	 ucomisd xmm2, xmm0
$LN26@CheckDegre:
  00099	9f		 lahf
  0009a	f6 c4 44	 test	 ah, 68			; 00000044H
  0009d	7a 04		 jp	 SHORT $LN6@CheckDegre
; Line 27
  0009f	b0 01		 mov	 al, 1
; Line 49
  000a1	5d		 pop	 ebp
  000a2	c3		 ret	 0
$LN6@CheckDegre:
; Line 29
  000a3	32 c0		 xor	 al, al
; Line 49
  000a5	5d		 pop	 ebp
  000a6	c3		 ret	 0
_CheckDegree ENDP
_TEXT	ENDS
; Function compile flags: /Ogtp
;	COMDAT _factorial
_TEXT	SEGMENT
_num$ = 8						; size = 4
_factorial PROC						; COMDAT
; File f:\0\luaspq-1.1\luaspq-1.1\src\lmathlibc.c
; Line 9
  00000	55		 push	 ebp
  00001	8b ec		 mov	 ebp, esp
; Line 10
  00003	ba 01 00 00 00	 mov	 edx, 1
  00008	56		 push	 esi
; Line 11
  00009	8b 75 08	 mov	 esi, DWORD PTR _num$[ebp]
  0000c	8b ca		 mov	 ecx, edx
  0000e	3b f2		 cmp	 esi, edx
  00010	7e 08		 jle	 SHORT $LN12@factorial
$LL8@factorial:
; Line 12
  00012	41		 inc	 ecx
  00013	0f af d1	 imul	 edx, ecx
  00016	3b ce		 cmp	 ecx, esi
  00018	7c f8		 jl	 SHORT $LL8@factorial
$LN12@factorial:
; Line 14
  0001a	8b c2		 mov	 eax, edx
  0001c	5e		 pop	 esi
; Line 15
  0001d	5d		 pop	 ebp
  0001e	c3		 ret	 0
_factorial ENDP
_TEXT	ENDS
; Function compile flags: /Ogtp
;	COMDAT _time
_TEXT	SEGMENT
__Time$ = 8						; size = 4
_time	PROC						; COMDAT
; File e:\microsoft visual studio 12.0\vc\include\time.inl
; Line 132
  00000	55		 push	 ebp
  00001	8b ec		 mov	 ebp, esp
; Line 134
  00003	5d		 pop	 ebp
; Line 133
  00004	ff 25 00 00 00
	00		 jmp	 DWORD PTR __imp___time64
_time	ENDP
_TEXT	ENDS
END
