; Listing generated by Microsoft (R) Optimizing Compiler Version 18.00.21005.1 

include listing.inc

INCLUDELIB MSVCRT
INCLUDELIB OLDNAMES

PUBLIC	??_C@_02NIGGJGKC@_G?$AA@			; `string'
PUBLIC	??_C@_07KNEGBPNO@package?$AA@			; `string'
PUBLIC	??_C@_09HNKENHFC@coroutine?$AA@			; `string'
PUBLIC	??_C@_05LCLENNFI@table?$AA@			; `string'
PUBLIC	??_C@_02KFNNKBCK@io?$AA@			; `string'
PUBLIC	??_C@_02EHCHIAMF@os?$AA@			; `string'
PUBLIC	??_C@_06ICGJLFIM@string?$AA@			; `string'
PUBLIC	??_C@_04CFDJAKFL@math?$AA@			; `string'
PUBLIC	??_C@_04LHHHFLPP@utf8?$AA@			; `string'
PUBLIC	??_C@_05GFCDIDHO@debug?$AA@			; `string'
PUBLIC	??_C@_05LACDNNEC@bit32?$AA@			; `string'
EXTRN	luaopen_base:PROC
EXTRN	luaopen_coroutine:PROC
EXTRN	luaopen_table:PROC
EXTRN	luaopen_io:PROC
EXTRN	luaopen_os:PROC
EXTRN	luaopen_string:PROC
EXTRN	luaopen_utf8:PROC
EXTRN	luaopen_bit32:PROC
EXTRN	luaopen_math:PROC
EXTRN	luaopen_debug:PROC
EXTRN	luaopen_package:PROC
;	COMDAT ??_C@_05LACDNNEC@bit32?$AA@
CONST	SEGMENT
??_C@_05LACDNNEC@bit32?$AA@ DB 'bit32', 00H		; `string'
CONST	ENDS
;	COMDAT ??_C@_05GFCDIDHO@debug?$AA@
CONST	SEGMENT
??_C@_05GFCDIDHO@debug?$AA@ DB 'debug', 00H		; `string'
CONST	ENDS
;	COMDAT ??_C@_04LHHHFLPP@utf8?$AA@
CONST	SEGMENT
??_C@_04LHHHFLPP@utf8?$AA@ DB 'utf8', 00H		; `string'
CONST	ENDS
;	COMDAT ??_C@_04CFDJAKFL@math?$AA@
CONST	SEGMENT
??_C@_04CFDJAKFL@math?$AA@ DB 'math', 00H		; `string'
CONST	ENDS
;	COMDAT ??_C@_06ICGJLFIM@string?$AA@
CONST	SEGMENT
??_C@_06ICGJLFIM@string?$AA@ DB 'string', 00H		; `string'
CONST	ENDS
;	COMDAT ??_C@_02EHCHIAMF@os?$AA@
CONST	SEGMENT
??_C@_02EHCHIAMF@os?$AA@ DB 'os', 00H			; `string'
CONST	ENDS
;	COMDAT ??_C@_02KFNNKBCK@io?$AA@
CONST	SEGMENT
??_C@_02KFNNKBCK@io?$AA@ DB 'io', 00H			; `string'
CONST	ENDS
;	COMDAT ??_C@_05LCLENNFI@table?$AA@
CONST	SEGMENT
??_C@_05LCLENNFI@table?$AA@ DB 'table', 00H		; `string'
CONST	ENDS
;	COMDAT ??_C@_09HNKENHFC@coroutine?$AA@
CONST	SEGMENT
??_C@_09HNKENHFC@coroutine?$AA@ DB 'coroutine', 00H	; `string'
CONST	ENDS
;	COMDAT ??_C@_07KNEGBPNO@package?$AA@
CONST	SEGMENT
??_C@_07KNEGBPNO@package?$AA@ DB 'package', 00H		; `string'
CONST	ENDS
;	COMDAT ??_C@_02NIGGJGKC@_G?$AA@
CONST	SEGMENT
??_C@_02NIGGJGKC@_G?$AA@ DB '_G', 00H			; `string'
CONST	ENDS
CONST	SEGMENT
loadedlibs DQ	FLAT:??_C@_02NIGGJGKC@_G?$AA@
	DQ	FLAT:luaopen_base
	DQ	FLAT:??_C@_07KNEGBPNO@package?$AA@
	DQ	FLAT:luaopen_package
	DQ	FLAT:??_C@_09HNKENHFC@coroutine?$AA@
	DQ	FLAT:luaopen_coroutine
	DQ	FLAT:??_C@_05LCLENNFI@table?$AA@
	DQ	FLAT:luaopen_table
	DQ	FLAT:??_C@_02KFNNKBCK@io?$AA@
	DQ	FLAT:luaopen_io
	DQ	FLAT:??_C@_02EHCHIAMF@os?$AA@
	DQ	FLAT:luaopen_os
	DQ	FLAT:??_C@_06ICGJLFIM@string?$AA@
	DQ	FLAT:luaopen_string
	DQ	FLAT:??_C@_04CFDJAKFL@math?$AA@
	DQ	FLAT:luaopen_math
	DQ	FLAT:??_C@_04LHHHFLPP@utf8?$AA@
	DQ	FLAT:luaopen_utf8
	DQ	FLAT:??_C@_05GFCDIDHO@debug?$AA@
	DQ	FLAT:luaopen_debug
	DQ	FLAT:??_C@_05LACDNNEC@bit32?$AA@
	DQ	FLAT:luaopen_bit32
	DQ	0000000000000000H
	DQ	0000000000000000H
CONST	ENDS
PUBLIC	luaL_openlibs
EXTRN	lua_settop:PROC
EXTRN	luaL_requiref:PROC
;	COMDAT pdata
pdata	SEGMENT
$pdata$luaL_openlibs DD imagerel $LN11
	DD	imagerel $LN11+89
	DD	imagerel $unwind$luaL_openlibs
pdata	ENDS
;	COMDAT xdata
xdata	SEGMENT
$unwind$luaL_openlibs DD 040a01H
	DD	06340aH
	DD	07006320aH
xdata	ENDS
; Function compile flags: /Ogtpy
;	COMDAT luaL_openlibs
_TEXT	SEGMENT
L$ = 48
luaL_openlibs PROC					; COMDAT
; File f:\0\luaspq-1.1\luaspq-1.1\src\linit.c
; Line 60
$LN11:
  00000	48 89 5c 24 08	 mov	 QWORD PTR [rsp+8], rbx
  00005	57		 push	 rdi
  00006	48 83 ec 20	 sub	 rsp, 32			; 00000020H
; Line 63
  0000a	48 8b 05 08 00
	00 00		 mov	 rax, QWORD PTR loadedlibs+8
  00011	48 8b f9	 mov	 rdi, rcx
  00014	48 8d 1d 00 00
	00 00		 lea	 rbx, OFFSET FLAT:loadedlibs
  0001b	48 85 c0	 test	 rax, rax
  0001e	74 2e		 je	 SHORT $LN1@luaL_openl
$LL3@luaL_openl:
; Line 64
  00020	48 8b 13	 mov	 rdx, QWORD PTR [rbx]
  00023	41 b9 01 00 00
	00		 mov	 r9d, 1
  00029	4c 8b c0	 mov	 r8, rax
  0002c	48 8b cf	 mov	 rcx, rdi
  0002f	e8 00 00 00 00	 call	 luaL_requiref
; Line 65
  00034	ba fe ff ff ff	 mov	 edx, -2
  00039	48 8b cf	 mov	 rcx, rdi
  0003c	e8 00 00 00 00	 call	 lua_settop
  00041	48 8b 43 18	 mov	 rax, QWORD PTR [rbx+24]
  00045	48 8d 5b 10	 lea	 rbx, QWORD PTR [rbx+16]
  00049	48 85 c0	 test	 rax, rax
  0004c	75 d2		 jne	 SHORT $LL3@luaL_openl
$LN1@luaL_openl:
; Line 67
  0004e	48 8b 5c 24 30	 mov	 rbx, QWORD PTR [rsp+48]
  00053	48 83 c4 20	 add	 rsp, 32			; 00000020H
  00057	5f		 pop	 rdi
  00058	c3		 ret	 0
luaL_openlibs ENDP
_TEXT	ENDS
END
