; Listing generated by Microsoft (R) Optimizing Compiler Version 18.00.21005.1 

include listing.inc

INCLUDELIB MSVCRT
INCLUDELIB OLDNAMES

PUBLIC	next
_DATA	SEGMENT
next	DD	01H
_DATA	ENDS
PUBLIC	factorial
PUBLIC	CheckDegree
PUBLIC	_sin
PUBLIC	_cos
PUBLIC	_tan
PUBLIC	sqrt_2
PUBLIC	sqrt_1
PUBLIC	__pow
PUBLIC	_abs
PUBLIC	angle_to_radian
PUBLIC	radian_to_angle
PUBLIC	_floor
PUBLIC	_ceil
PUBLIC	_round
PUBLIC	_exp
PUBLIC	_log10
PUBLIC	_log
PUBLIC	_log2
PUBLIC	_powf
PUBLIC	__rand
PUBLIC	srand_1
PUBLIC	srand_2
PUBLIC	__asin
PUBLIC	__acos
PUBLIC	__atan
PUBLIC	__sinh
PUBLIC	__cosh
PUBLIC	__tanh
PUBLIC	__fmod
PUBLIC	__fabs
PUBLIC	F1
PUBLIC	F2
PUBLIC	simpson_2
PUBLIC	simpson_1
PUBLIC	asr_4
PUBLIC	asr_1
PUBLIC	asr_2
PUBLIC	asr_3
PUBLIC	eee
PUBLIC	_Convert
PUBLIC	__isnan
PUBLIC	__isinf
PUBLIC	____atan2
PUBLIC	__ldexp
PUBLIC	__frexp
PUBLIC	__real@3e45798ee2308c3a
PUBLIC	__real@3e7ad7f29abcaf48
PUBLIC	__real@3f000000
PUBLIC	__real@3f50624dd2f1a9fc
PUBLIC	__real@3f800000
PUBLIC	__real@3fe0000000000000
PUBLIC	__real@3fe0000000015fd8
PUBLIC	__real@3fe638e38e38e38d
PUBLIC	__real@3ff0000000000000
PUBLIC	__real@3ff921fb54442d18
PUBLIC	__real@4000000000000000
PUBLIC	__real@4005bf0a8b145769
PUBLIC	__real@4005ed61bed61bed
PUBLIC	__real@4008000000000000
PUBLIC	__real@400921fb54442d18
PUBLIC	__real@4010000000000000
PUBLIC	__real@4014000000000000
PUBLIC	__real@4018000000000000
PUBLIC	__real@401c000000000000
PUBLIC	__real@4022000000000000
PUBLIC	__real@4024000000000000
PUBLIC	__real@402e000000000000
PUBLIC	__real@4038000000000000
PUBLIC	__real@404e000000000000
PUBLIC	__real@4056800000000000
PUBLIC	__real@405e000000000000
PUBLIC	__real@4066800000000000
PUBLIC	__real@40ac200000000000
PUBLIC	__real@7ff0000000000000
PUBLIC	__real@8000000000000000
PUBLIC	__real@bff0000000000000
PUBLIC	__real@bff921fb54442d18
PUBLIC	__xmm@80000000000000008000000000000000
EXTRN	__imp__time64:PROC
EXTRN	_fltused:DWORD
;	COMDAT pdata
pdata	SEGMENT
$pdata$_sin DD	imagerel $LN49
	DD	imagerel $LN49+227
	DD	imagerel $unwind$_sin
pdata	ENDS
;	COMDAT pdata
pdata	SEGMENT
$pdata$_cos DD	imagerel $LN48
	DD	imagerel $LN48+89
	DD	imagerel $unwind$_cos
pdata	ENDS
;	COMDAT pdata
pdata	SEGMENT
$pdata$1$_cos DD imagerel $LN48+89
	DD	imagerel $LN48+257
	DD	imagerel $chain$1$_cos
pdata	ENDS
;	COMDAT pdata
pdata	SEGMENT
$pdata$2$_cos DD imagerel $LN48+257
	DD	imagerel $LN48+357
	DD	imagerel $chain$2$_cos
pdata	ENDS
;	COMDAT pdata
pdata	SEGMENT
$pdata$_tan DD	imagerel $LN29
	DD	imagerel $LN29+140
	DD	imagerel $unwind$_tan
pdata	ENDS
;	COMDAT pdata
pdata	SEGMENT
$pdata$__pow DD	imagerel $LN12
	DD	imagerel $LN12+137
	DD	imagerel $unwind$__pow
pdata	ENDS
;	COMDAT pdata
pdata	SEGMENT
$pdata$_round DD imagerel $LN28
	DD	imagerel $LN28+330
	DD	imagerel $unwind$_round
pdata	ENDS
;	COMDAT pdata
pdata	SEGMENT
$pdata$_exp DD	imagerel $LN9
	DD	imagerel $LN9+133
	DD	imagerel $unwind$_exp
pdata	ENDS
;	COMDAT pdata
pdata	SEGMENT
$pdata$_log10 DD imagerel $LN36
	DD	imagerel $LN36+168
	DD	imagerel $unwind$_log10
pdata	ENDS
;	COMDAT pdata
pdata	SEGMENT
$pdata$_log2 DD	imagerel $LN36
	DD	imagerel $LN36+168
	DD	imagerel $unwind$_log2
pdata	ENDS
;	COMDAT pdata
pdata	SEGMENT
$pdata$_powf DD	imagerel $LN20
	DD	imagerel $LN20+118
	DD	imagerel $unwind$_powf
pdata	ENDS
;	COMDAT pdata
pdata	SEGMENT
$pdata$srand_2 DD imagerel $LN8
	DD	imagerel $LN8+23
	DD	imagerel $unwind$srand_2
pdata	ENDS
;	COMDAT pdata
pdata	SEGMENT
$pdata$__asin DD imagerel $LN28
	DD	imagerel $LN28+163
	DD	imagerel $unwind$__asin
pdata	ENDS
;	COMDAT pdata
pdata	SEGMENT
$pdata$2$__asin DD imagerel $LN28+163
	DD	imagerel $LN28+299
	DD	imagerel $chain$2$__asin
pdata	ENDS
;	COMDAT pdata
pdata	SEGMENT
$pdata$3$__asin DD imagerel $LN28+299
	DD	imagerel $LN28+325
	DD	imagerel $chain$3$__asin
pdata	ENDS
;	COMDAT pdata
pdata	SEGMENT
$pdata$__acos DD imagerel $LN9
	DD	imagerel $LN9+71
	DD	imagerel $unwind$__acos
pdata	ENDS
;	COMDAT pdata
pdata	SEGMENT
$pdata$__atan DD imagerel $LN44
	DD	imagerel $LN44+46
	DD	imagerel $unwind$__atan
pdata	ENDS
;	COMDAT pdata
pdata	SEGMENT
$pdata$0$__atan DD imagerel $LN44+46
	DD	imagerel $LN44+108
	DD	imagerel $chain$0$__atan
pdata	ENDS
;	COMDAT pdata
pdata	SEGMENT
$pdata$2$__atan DD imagerel $LN44+108
	DD	imagerel $LN44+169
	DD	imagerel $chain$2$__atan
pdata	ENDS
;	COMDAT pdata
pdata	SEGMENT
$pdata$6$__atan DD imagerel $LN44+169
	DD	imagerel $LN44+366
	DD	imagerel $chain$6$__atan
pdata	ENDS
;	COMDAT pdata
pdata	SEGMENT
$pdata$__sinh DD imagerel $LN4
	DD	imagerel $LN4+70
	DD	imagerel $unwind$__sinh
pdata	ENDS
;	COMDAT pdata
pdata	SEGMENT
$pdata$__cosh DD imagerel $LN4
	DD	imagerel $LN4+70
	DD	imagerel $unwind$__cosh
pdata	ENDS
;	COMDAT pdata
pdata	SEGMENT
$pdata$__tanh DD imagerel $LN4
	DD	imagerel $LN4+49
	DD	imagerel $unwind$__tanh
pdata	ENDS
;	COMDAT pdata
pdata	SEGMENT
$pdata$simpson_1 DD imagerel $LN12
	DD	imagerel $LN12+121
	DD	imagerel $unwind$simpson_1
pdata	ENDS
;	COMDAT pdata
pdata	SEGMENT
$pdata$0$simpson_1 DD imagerel $LN12+121
	DD	imagerel $LN12+190
	DD	imagerel $chain$0$simpson_1
pdata	ENDS
;	COMDAT pdata
pdata	SEGMENT
$pdata$1$simpson_1 DD imagerel $LN12+190
	DD	imagerel $LN12+220
	DD	imagerel $chain$1$simpson_1
pdata	ENDS
;	COMDAT pdata
pdata	SEGMENT
$pdata$asr_4 DD	imagerel $LN33
	DD	imagerel $LN33+407
	DD	imagerel $unwind$asr_4
pdata	ENDS
;	COMDAT pdata
pdata	SEGMENT
$pdata$asr_1 DD	imagerel $LN16
	DD	imagerel $LN16+96
	DD	imagerel $unwind$asr_1
pdata	ENDS
;	COMDAT pdata
pdata	SEGMENT
$pdata$asr_2 DD	imagerel $LN9
	DD	imagerel $LN9+294
	DD	imagerel $unwind$asr_2
pdata	ENDS
;	COMDAT pdata
pdata	SEGMENT
$pdata$asr_3 DD	imagerel $LN4
	DD	imagerel $LN4+87
	DD	imagerel $unwind$asr_3
pdata	ENDS
;	COMDAT pdata
pdata	SEGMENT
$pdata$eee DD	imagerel $LN32
	DD	imagerel $LN32+179
	DD	imagerel $unwind$eee
pdata	ENDS
;	COMDAT pdata
pdata	SEGMENT
$pdata$____atan2 DD imagerel $LN28
	DD	imagerel $LN28+643
	DD	imagerel $unwind$____atan2
pdata	ENDS
;	COMDAT pdata
pdata	SEGMENT
$pdata$__ldexp DD imagerel $LN4
	DD	imagerel $LN4+39
	DD	imagerel $unwind$__ldexp
pdata	ENDS
;	COMDAT pdata
pdata	SEGMENT
$pdata$__frexp DD imagerel $LN5
	DD	imagerel $LN5+90
	DD	imagerel $unwind$__frexp
pdata	ENDS
;	COMDAT __xmm@80000000000000008000000000000000
CONST	SEGMENT
__xmm@80000000000000008000000000000000 DB 00H, 00H, 00H, 00H, 00H, 00H, 00H
	DB	080H, 00H, 00H, 00H, 00H, 00H, 00H, 00H, 080H
CONST	ENDS
;	COMDAT __real@bff921fb54442d18
CONST	SEGMENT
__real@bff921fb54442d18 DQ 0bff921fb54442d18r	; -1.5708
CONST	ENDS
;	COMDAT __real@bff0000000000000
CONST	SEGMENT
__real@bff0000000000000 DQ 0bff0000000000000r	; -1
CONST	ENDS
;	COMDAT __real@8000000000000000
CONST	SEGMENT
__real@8000000000000000 DQ 08000000000000000r	; -0
CONST	ENDS
;	COMDAT __real@7ff0000000000000
CONST	SEGMENT
__real@7ff0000000000000 DQ 07ff0000000000000r	; 1.#INF
CONST	ENDS
;	COMDAT __real@40ac200000000000
CONST	SEGMENT
__real@40ac200000000000 DQ 040ac200000000000r	; 3600
CONST	ENDS
;	COMDAT __real@4066800000000000
CONST	SEGMENT
__real@4066800000000000 DQ 04066800000000000r	; 180
CONST	ENDS
;	COMDAT __real@405e000000000000
CONST	SEGMENT
__real@405e000000000000 DQ 0405e000000000000r	; 120
CONST	ENDS
;	COMDAT __real@4056800000000000
CONST	SEGMENT
__real@4056800000000000 DQ 04056800000000000r	; 90
CONST	ENDS
;	COMDAT __real@404e000000000000
CONST	SEGMENT
__real@404e000000000000 DQ 0404e000000000000r	; 60
CONST	ENDS
;	COMDAT __real@4038000000000000
CONST	SEGMENT
__real@4038000000000000 DQ 04038000000000000r	; 24
CONST	ENDS
;	COMDAT __real@402e000000000000
CONST	SEGMENT
__real@402e000000000000 DQ 0402e000000000000r	; 15
CONST	ENDS
;	COMDAT __real@4024000000000000
CONST	SEGMENT
__real@4024000000000000 DQ 04024000000000000r	; 10
CONST	ENDS
;	COMDAT __real@4022000000000000
CONST	SEGMENT
__real@4022000000000000 DQ 04022000000000000r	; 9
CONST	ENDS
;	COMDAT __real@401c000000000000
CONST	SEGMENT
__real@401c000000000000 DQ 0401c000000000000r	; 7
CONST	ENDS
;	COMDAT __real@4018000000000000
CONST	SEGMENT
__real@4018000000000000 DQ 04018000000000000r	; 6
CONST	ENDS
;	COMDAT __real@4014000000000000
CONST	SEGMENT
__real@4014000000000000 DQ 04014000000000000r	; 5
CONST	ENDS
;	COMDAT __real@4010000000000000
CONST	SEGMENT
__real@4010000000000000 DQ 04010000000000000r	; 4
CONST	ENDS
;	COMDAT __real@400921fb54442d18
CONST	SEGMENT
__real@400921fb54442d18 DQ 0400921fb54442d18r	; 3.14159
CONST	ENDS
;	COMDAT __real@4008000000000000
CONST	SEGMENT
__real@4008000000000000 DQ 04008000000000000r	; 3
CONST	ENDS
;	COMDAT __real@4005ed61bed61bed
CONST	SEGMENT
__real@4005ed61bed61bed DQ 04005ed61bed61bedr	; 2.74091
CONST	ENDS
;	COMDAT __real@4005bf0a8b145769
CONST	SEGMENT
__real@4005bf0a8b145769 DQ 04005bf0a8b145769r	; 2.71828
CONST	ENDS
;	COMDAT __real@4000000000000000
CONST	SEGMENT
__real@4000000000000000 DQ 04000000000000000r	; 2
CONST	ENDS
;	COMDAT __real@3ff921fb54442d18
CONST	SEGMENT
__real@3ff921fb54442d18 DQ 03ff921fb54442d18r	; 1.5708
CONST	ENDS
;	COMDAT __real@3ff0000000000000
CONST	SEGMENT
__real@3ff0000000000000 DQ 03ff0000000000000r	; 1
CONST	ENDS
;	COMDAT __real@3fe638e38e38e38d
CONST	SEGMENT
__real@3fe638e38e38e38d DQ 03fe638e38e38e38dr	; 0.694444
CONST	ENDS
;	COMDAT __real@3fe0000000015fd8
CONST	SEGMENT
__real@3fe0000000015fd8 DQ 03fe0000000015fd8r	; 0.5
CONST	ENDS
;	COMDAT __real@3fe0000000000000
CONST	SEGMENT
__real@3fe0000000000000 DQ 03fe0000000000000r	; 0.5
CONST	ENDS
;	COMDAT __real@3f800000
CONST	SEGMENT
__real@3f800000 DD 03f800000r			; 1
CONST	ENDS
;	COMDAT __real@3f50624dd2f1a9fc
CONST	SEGMENT
__real@3f50624dd2f1a9fc DQ 03f50624dd2f1a9fcr	; 0.001
CONST	ENDS
;	COMDAT __real@3f000000
CONST	SEGMENT
__real@3f000000 DD 03f000000r			; 0.5
CONST	ENDS
;	COMDAT __real@3e7ad7f29abcaf48
CONST	SEGMENT
__real@3e7ad7f29abcaf48 DQ 03e7ad7f29abcaf48r	; 1e-007
CONST	ENDS
;	COMDAT __real@3e45798ee2308c3a
CONST	SEGMENT
__real@3e45798ee2308c3a DQ 03e45798ee2308c3ar	; 1e-008
CONST	ENDS
;	COMDAT xdata
xdata	SEGMENT
$unwind$__frexp DD 040b01H
	DD	02680bH
	DD	030025206H
xdata	ENDS
;	COMDAT xdata
xdata	SEGMENT
$unwind$__ldexp DD 030901H
	DD	026809H
	DD	06204H
xdata	ENDS
;	COMDAT xdata
xdata	SEGMENT
$unwind$____atan2 DD 072e01H
	DD	0882eH
	DD	017816H
	DD	026811H
	DD	06204H
xdata	ENDS
;	COMDAT xdata
xdata	SEGMENT
$unwind$eee DD	053e01H
	DD	03683eH
	DD	027811H
	DD	08204H
xdata	ENDS
;	COMDAT xdata
xdata	SEGMENT
$unwind$asr_3 DD 082201H
	DD	038822H
	DD	047810H
	DD	05680bH
	DD	03002b206H
xdata	ENDS
;	COMDAT xdata
xdata	SEGMENT
$unwind$asr_2 DD 0f4801H
	DD	03c848H
	DD	04a832H
	DD	05982dH
	DD	068828H
	DD	07781aH
	DD	086816H
	DD	012010bH
	DD	03004H
xdata	ENDS
;	COMDAT xdata
xdata	SEGMENT
$unwind$asr_1 DD 031901H
	DD	026819H
	DD	06204H
xdata	ENDS
;	COMDAT xdata
xdata	SEGMENT
$unwind$asr_4 DD 0125801H
	DD	02d858H
	DD	03c852H
	DD	04b84dH
	DD	05a832H
	DD	06982dH
	DD	078828H
	DD	08781aH
	DD	096816H
	DD	015010aH
xdata	ENDS
;	COMDAT xdata
xdata	SEGMENT
$chain$1$simpson_1 DD 021H
	DD	imagerel $LN12
	DD	imagerel $LN12+121
	DD	imagerel $unwind$simpson_1
xdata	ENDS
;	COMDAT xdata
xdata	SEGMENT
$chain$0$simpson_1 DD 020521H
	DD	056805H
	DD	imagerel $LN12
	DD	imagerel $LN12+121
	DD	imagerel $unwind$simpson_1
xdata	ENDS
;	COMDAT xdata
xdata	SEGMENT
$unwind$simpson_1 DD 072001H
	DD	029820H
	DD	03880fH
	DD	047809H
	DD	0c204H
xdata	ENDS
;	COMDAT xdata
xdata	SEGMENT
$unwind$__tanh DD 010401H
	DD	04204H
xdata	ENDS
;	COMDAT xdata
xdata	SEGMENT
$unwind$__cosh DD 051801H
	DD	027818H
	DD	036809H
	DD	08204H
xdata	ENDS
;	COMDAT xdata
xdata	SEGMENT
$unwind$__sinh DD 050e01H
	DD	02780eH
	DD	036809H
	DD	08204H
xdata	ENDS
;	COMDAT xdata
xdata	SEGMENT
$chain$6$__atan DD 061021H
	DD	038810H
	DD	04780aH
	DD	056800H
	DD	imagerel $LN44
	DD	imagerel $LN44+46
	DD	imagerel $unwind$__atan
xdata	ENDS
;	COMDAT xdata
xdata	SEGMENT
$chain$2$__atan DD 020021H
	DD	056800H
	DD	imagerel $LN44
	DD	imagerel $LN44+46
	DD	imagerel $unwind$__atan
xdata	ENDS
;	COMDAT xdata
xdata	SEGMENT
$chain$0$__atan DD 020521H
	DD	056805H
	DD	imagerel $LN44
	DD	imagerel $LN44+46
	DD	imagerel $unwind$__atan
xdata	ENDS
;	COMDAT xdata
xdata	SEGMENT
$unwind$__atan DD 030d01H
	DD	02980dH
	DD	0c204H
xdata	ENDS
;	COMDAT xdata
xdata	SEGMENT
$unwind$__acos DD 010401H
	DD	04204H
xdata	ENDS
;	COMDAT xdata
xdata	SEGMENT
$chain$3$__asin DD 021H
	DD	imagerel $LN28
	DD	imagerel $LN28+163
	DD	imagerel $unwind$__asin
xdata	ENDS
;	COMDAT xdata
xdata	SEGMENT
$chain$2$__asin DD 040a21H
	DD	06780aH
	DD	076805H
	DD	imagerel $LN28
	DD	imagerel $LN28+163
	DD	imagerel $unwind$__asin
xdata	ENDS
;	COMDAT xdata
xdata	SEGMENT
$unwind$__asin DD 086201H
	DD	03a862H
	DD	04981bH
	DD	058815H
	DD	0110107H
xdata	ENDS
;	COMDAT xdata
xdata	SEGMENT
$unwind$srand_2 DD 010401H
	DD	04204H
xdata	ENDS
;	COMDAT xdata
xdata	SEGMENT
$unwind$_powf DD 031701H
	DD	026817H
	DD	06204H
xdata	ENDS
;	COMDAT xdata
xdata	SEGMENT
$unwind$_log2 DD 051a01H
	DD	02881aH
	DD	037814H
	DD	08204H
xdata	ENDS
;	COMDAT xdata
xdata	SEGMENT
$unwind$_log10 DD 051a01H
	DD	02881aH
	DD	037814H
	DD	08204H
xdata	ENDS
;	COMDAT xdata
xdata	SEGMENT
$unwind$_exp DD	054101H
	DD	026841H
	DD	06343cH
	DD	06204H
xdata	ENDS
;	COMDAT xdata
xdata	SEGMENT
$unwind$_round DD 0c2a01H
	DD	02882aH
	DD	037819H
	DD	046814H
	DD	0e640fH
	DD	0d340fH
	DD	0700b920fH
xdata	ENDS
;	COMDAT xdata
xdata	SEGMENT
$unwind$__pow DD 040b01H
	DD	02680bH
	DD	030025206H
xdata	ENDS
;	COMDAT xdata
xdata	SEGMENT
$unwind$_tan DD	056601H
	DD	036866H
	DD	02780cH
	DD	08204H
xdata	ENDS
;	COMDAT xdata
xdata	SEGMENT
$chain$2$_cos DD 021H
	DD	imagerel $LN48
	DD	imagerel $LN48+89
	DD	imagerel $unwind$_cos
xdata	ENDS
;	COMDAT xdata
xdata	SEGMENT
$chain$1$_cos DD 020521H
	DD	027805H
	DD	imagerel $LN48
	DD	imagerel $LN48+89
	DD	imagerel $unwind$_cos
xdata	ENDS
;	COMDAT xdata
xdata	SEGMENT
$unwind$_cos DD	035501H
	DD	036855H
	DD	08204H
xdata	ENDS
;	COMDAT xdata
xdata	SEGMENT
$unwind$_sin DD	096001H
	DD	027860H
	DD	03685bH
	DD	087456H
	DD	0a3451H
	DD	08204H
xdata	ENDS
; Function compile flags: /Ogtpy
;	COMDAT __frexp
_TEXT	SEGMENT
x$ = 64
exp$ = 72
__frexp	PROC						; COMDAT
; File f:\0\luaspq-1.1\luaspq-1.1\src\lmathlibc.c
; Line 466
$LN5:
  00000	40 53		 push	 rbx
  00002	48 83 ec 30	 sub	 rsp, 48			; 00000030H
  00006	0f 29 74 24 20	 movaps	 XMMWORD PTR [rsp+32], xmm6
  0000b	0f 28 f0	 movaps	 xmm6, xmm0
  0000e	0f 57 c0	 xorps	 xmm0, xmm0
  00011	48 8b da	 mov	 rbx, rdx
; Line 467
  00014	66 0f 2e f0	 ucomisd xmm6, xmm0
  00018	7a 13		 jp	 SHORT $LN1@frexp
  0001a	75 11		 jne	 SHORT $LN1@frexp
; Line 469
  0001c	c7 02 00 00 00
	00		 mov	 DWORD PTR [rdx], 0
; Line 474
  00022	0f 28 74 24 20	 movaps	 xmm6, XMMWORD PTR [rsp+32]
  00027	48 83 c4 30	 add	 rsp, 48			; 00000030H
  0002b	5b		 pop	 rbx
  0002c	c3		 ret	 0
$LN1@frexp:
; Line 472
  0002d	0f 28 c6	 movaps	 xmm0, xmm6
  00030	e8 00 00 00 00	 call	 _log2
  00035	f2 0f 2c d0	 cvttsd2si edx, xmm0
; Line 473
  00039	f2 0f 10 05 00
	00 00 00	 movsdx	 xmm0, QWORD PTR __real@4000000000000000
  00041	89 13		 mov	 DWORD PTR [rbx], edx
  00043	e8 00 00 00 00	 call	 __pow
  00048	f2 0f 5c f0	 subsd	 xmm6, xmm0
  0004c	0f 28 c6	 movaps	 xmm0, xmm6
; Line 474
  0004f	0f 28 74 24 20	 movaps	 xmm6, XMMWORD PTR [rsp+32]
  00054	48 83 c4 30	 add	 rsp, 48			; 00000030H
  00058	5b		 pop	 rbx
  00059	c3		 ret	 0
__frexp	ENDP
_TEXT	ENDS
; Function compile flags: /Ogtpy
;	COMDAT __ldexp
_TEXT	SEGMENT
x$ = 64
exp$ = 72
__ldexp	PROC						; COMDAT
; File f:\0\luaspq-1.1\luaspq-1.1\src\lmathlibc.c
; Line 462
$LN4:
  00000	48 83 ec 38	 sub	 rsp, 56			; 00000038H
  00004	0f 29 74 24 20	 movaps	 XMMWORD PTR [rsp+32], xmm6
  00009	0f 28 f0	 movaps	 xmm6, xmm0
; Line 463
  0000c	f2 0f 10 05 00
	00 00 00	 movsdx	 xmm0, QWORD PTR __real@4000000000000000
  00014	e8 00 00 00 00	 call	 __pow
  00019	f2 0f 59 c6	 mulsd	 xmm0, xmm6
; Line 464
  0001d	0f 28 74 24 20	 movaps	 xmm6, XMMWORD PTR [rsp+32]
  00022	48 83 c4 38	 add	 rsp, 56			; 00000038H
  00026	c3		 ret	 0
__ldexp	ENDP
_TEXT	ENDS
; Function compile flags: /Ogtpy
;	COMDAT ____atan2
_TEXT	SEGMENT
y$ = 64
x$ = 72
infNum$ = 80
____atan2 PROC						; COMDAT
; File f:\0\luaspq-1.1\luaspq-1.1\src\lmathlibc.c
; Line 424
$LN28:
  00000	48 83 ec 38	 sub	 rsp, 56			; 00000038H
; Line 429
  00004	f2 0f 10 2d 00
	00 00 00	 movsdx	 xmm5, QWORD PTR __real@3ff0000000000000
  0000c	0f 29 74 24 20	 movaps	 XMMWORD PTR [rsp+32], xmm6
  00011	0f 29 7c 24 10	 movaps	 XMMWORD PTR [rsp+16], xmm7
  00016	0f 28 e0	 movaps	 xmm4, xmm0
  00019	0f 57 f6	 xorps	 xmm6, xmm6
  0001c	33 c9		 xor	 ecx, ecx
  0001e	0f 28 f9	 movaps	 xmm7, xmm1
  00021	0f 28 de	 movaps	 xmm3, xmm6
  00024	66 41 0f 6e d0	 movd	 xmm2, r8d
  00029	44 0f 29 04 24	 movaps	 XMMWORD PTR [rsp], xmm8
  0002e	f2 0f 5e e1	 divsd	 xmm4, xmm1
  00032	44 0f 28 c0	 movaps	 xmm8, xmm0
  00036	f3 0f e6 d2	 cvtdq2pd xmm2, xmm2
  0003a	f2 0f 5e e2	 divsd	 xmm4, xmm2
  0003e	41 83 f8 08	 cmp	 r8d, 8
  00042	0f 8c 41 01 00
	00		 jl	 $LC22@atan2
; Line 426
  00048	45 8d 48 f9	 lea	 r9d, DWORD PTR [r8-7]
  0004c	8d 51 02	 lea	 edx, QWORD PTR [rcx+2]
  0004f	90		 npad	 1
; Line 429
$LL23@atan2:
; Line 431
  00050	66 0f 6e c9	 movd	 xmm1, ecx
  00054	8d 42 ff	 lea	 eax, DWORD PTR [rdx-1]
; Line 432
  00057	0f 28 c5	 movaps	 xmm0, xmm5
; Line 433
  0005a	83 c1 08	 add	 ecx, 8
  0005d	f3 0f e6 c9	 cvtdq2pd xmm1, xmm1
  00061	f2 0f 59 cc	 mulsd	 xmm1, xmm4
  00065	f2 0f 59 c9	 mulsd	 xmm1, xmm1
  00069	f2 0f 58 cd	 addsd	 xmm1, xmm5
  0006d	f2 0f 5e c1	 divsd	 xmm0, xmm1
  00071	66 0f 6e c8	 movd	 xmm1, eax
  00075	8d 42 01	 lea	 eax, DWORD PTR [rdx+1]
  00078	f3 0f e6 c9	 cvtdq2pd xmm1, xmm1
  0007c	f2 0f 59 cc	 mulsd	 xmm1, xmm4
  00080	f2 0f 59 c4	 mulsd	 xmm0, xmm4
  00084	f2 0f 58 d8	 addsd	 xmm3, xmm0
  00088	0f 28 c5	 movaps	 xmm0, xmm5
  0008b	f2 0f 59 c9	 mulsd	 xmm1, xmm1
  0008f	f2 0f 58 cd	 addsd	 xmm1, xmm5
  00093	f2 0f 5e c1	 divsd	 xmm0, xmm1
  00097	66 0f 6e ca	 movd	 xmm1, edx
  0009b	f3 0f e6 c9	 cvtdq2pd xmm1, xmm1
  0009f	f2 0f 59 cc	 mulsd	 xmm1, xmm4
  000a3	f2 0f 59 c4	 mulsd	 xmm0, xmm4
  000a7	f2 0f 58 d8	 addsd	 xmm3, xmm0
  000ab	0f 28 c5	 movaps	 xmm0, xmm5
  000ae	f2 0f 59 c9	 mulsd	 xmm1, xmm1
  000b2	f2 0f 58 cd	 addsd	 xmm1, xmm5
  000b6	f2 0f 5e c1	 divsd	 xmm0, xmm1
  000ba	66 0f 6e c8	 movd	 xmm1, eax
  000be	8d 42 02	 lea	 eax, DWORD PTR [rdx+2]
  000c1	f3 0f e6 c9	 cvtdq2pd xmm1, xmm1
  000c5	f2 0f 59 cc	 mulsd	 xmm1, xmm4
  000c9	f2 0f 59 c4	 mulsd	 xmm0, xmm4
  000cd	f2 0f 58 d8	 addsd	 xmm3, xmm0
  000d1	0f 28 c5	 movaps	 xmm0, xmm5
  000d4	f2 0f 59 c9	 mulsd	 xmm1, xmm1
  000d8	f2 0f 58 cd	 addsd	 xmm1, xmm5
  000dc	f2 0f 5e c1	 divsd	 xmm0, xmm1
  000e0	66 0f 6e c8	 movd	 xmm1, eax
  000e4	8d 42 03	 lea	 eax, DWORD PTR [rdx+3]
  000e7	f3 0f e6 c9	 cvtdq2pd xmm1, xmm1
  000eb	f2 0f 59 cc	 mulsd	 xmm1, xmm4
  000ef	f2 0f 59 c4	 mulsd	 xmm0, xmm4
  000f3	f2 0f 58 d8	 addsd	 xmm3, xmm0
  000f7	0f 28 c5	 movaps	 xmm0, xmm5
  000fa	f2 0f 59 c9	 mulsd	 xmm1, xmm1
  000fe	f2 0f 58 cd	 addsd	 xmm1, xmm5
  00102	f2 0f 5e c1	 divsd	 xmm0, xmm1
  00106	66 0f 6e c8	 movd	 xmm1, eax
  0010a	8d 42 04	 lea	 eax, DWORD PTR [rdx+4]
  0010d	f3 0f e6 c9	 cvtdq2pd xmm1, xmm1
  00111	f2 0f 59 cc	 mulsd	 xmm1, xmm4
  00115	f2 0f 59 c4	 mulsd	 xmm0, xmm4
  00119	f2 0f 58 d8	 addsd	 xmm3, xmm0
  0011d	0f 28 c5	 movaps	 xmm0, xmm5
  00120	f2 0f 59 c9	 mulsd	 xmm1, xmm1
  00124	f2 0f 58 cd	 addsd	 xmm1, xmm5
  00128	f2 0f 5e c1	 divsd	 xmm0, xmm1
  0012c	66 0f 6e c8	 movd	 xmm1, eax
  00130	8d 42 05	 lea	 eax, DWORD PTR [rdx+5]
  00133	83 c2 08	 add	 edx, 8
  00136	41 3b c9	 cmp	 ecx, r9d
  00139	f3 0f e6 c9	 cvtdq2pd xmm1, xmm1
  0013d	f2 0f 59 cc	 mulsd	 xmm1, xmm4
  00141	f2 0f 59 c4	 mulsd	 xmm0, xmm4
  00145	f2 0f 58 d8	 addsd	 xmm3, xmm0
  00149	0f 28 c5	 movaps	 xmm0, xmm5
  0014c	f2 0f 59 c9	 mulsd	 xmm1, xmm1
  00150	f2 0f 58 cd	 addsd	 xmm1, xmm5
  00154	f2 0f 5e c1	 divsd	 xmm0, xmm1
  00158	66 0f 6e c8	 movd	 xmm1, eax
  0015c	f3 0f e6 c9	 cvtdq2pd xmm1, xmm1
  00160	f2 0f 59 c4	 mulsd	 xmm0, xmm4
  00164	f2 0f 59 cc	 mulsd	 xmm1, xmm4
  00168	f2 0f 58 d8	 addsd	 xmm3, xmm0
  0016c	0f 28 c5	 movaps	 xmm0, xmm5
  0016f	f2 0f 59 c9	 mulsd	 xmm1, xmm1
  00173	f2 0f 58 cd	 addsd	 xmm1, xmm5
  00177	f2 0f 5e c1	 divsd	 xmm0, xmm1
  0017b	f2 0f 59 c4	 mulsd	 xmm0, xmm4
  0017f	f2 0f 58 d8	 addsd	 xmm3, xmm0
  00183	0f 8c c7 fe ff
	ff		 jl	 $LL23@atan2
$LC22@atan2:
; Line 429
  00189	41 3b c8	 cmp	 ecx, r8d
  0018c	7d 2a		 jge	 SHORT $LN21@atan2
$LC18@atan2:
  0018e	66 0f 6e d1	 movd	 xmm2, ecx
; Line 432
  00192	0f 28 cd	 movaps	 xmm1, xmm5
  00195	ff c1		 inc	 ecx
  00197	f3 0f e6 d2	 cvtdq2pd xmm2, xmm2
  0019b	f2 0f 59 d4	 mulsd	 xmm2, xmm4
  0019f	f2 0f 59 d2	 mulsd	 xmm2, xmm2
  001a3	f2 0f 58 d5	 addsd	 xmm2, xmm5
  001a7	f2 0f 5e ca	 divsd	 xmm1, xmm2
  001ab	f2 0f 59 cc	 mulsd	 xmm1, xmm4
; Line 433
  001af	f2 0f 58 d9	 addsd	 xmm3, xmm1
  001b3	41 3b c8	 cmp	 ecx, r8d
  001b6	7c d6		 jl	 SHORT $LC18@atan2
$LN21@atan2:
; Line 436
  001b8	66 0f 2f fe	 comisd	 xmm7, xmm6
  001bc	77 15		 ja	 SHORT $LN26@atan2
; Line 440
  001be	66 44 0f 2f c6	 comisd	 xmm8, xmm6
  001c3	72 25		 jb	 SHORT $LN8@atan2
  001c5	66 0f 2f f7	 comisd	 xmm6, xmm7
  001c9	76 1f		 jbe	 SHORT $LN8@atan2
; Line 442
  001cb	f2 0f 58 1d 00
	00 00 00	 addsd	 xmm3, QWORD PTR __real@400921fb54442d18
$LN26@atan2:
  001d3	0f 28 c3	 movaps	 xmm0, xmm3
; Line 460
  001d6	0f 28 74 24 20	 movaps	 xmm6, XMMWORD PTR [rsp+32]
  001db	0f 28 7c 24 10	 movaps	 xmm7, XMMWORD PTR [rsp+16]
  001e0	44 0f 28 04 24	 movaps	 xmm8, XMMWORD PTR [rsp]
  001e5	48 83 c4 38	 add	 rsp, 56			; 00000038H
  001e9	c3		 ret	 0
$LN8@atan2:
; Line 444
  001ea	66 41 0f 2f f0	 comisd	 xmm6, xmm8
  001ef	76 25		 jbe	 SHORT $LN6@atan2
  001f1	66 0f 2f f7	 comisd	 xmm6, xmm7
  001f5	76 1f		 jbe	 SHORT $LN6@atan2
; Line 446
  001f7	f2 0f 5c 1d 00
	00 00 00	 subsd	 xmm3, QWORD PTR __real@400921fb54442d18
  001ff	0f 28 c3	 movaps	 xmm0, xmm3
; Line 460
  00202	0f 28 74 24 20	 movaps	 xmm6, XMMWORD PTR [rsp+32]
  00207	0f 28 7c 24 10	 movaps	 xmm7, XMMWORD PTR [rsp+16]
  0020c	44 0f 28 04 24	 movaps	 xmm8, XMMWORD PTR [rsp]
  00211	48 83 c4 38	 add	 rsp, 56			; 00000038H
  00215	c3		 ret	 0
$LN6@atan2:
; Line 448
  00216	66 44 0f 2f c6	 comisd	 xmm8, xmm6
  0021b	76 24		 jbe	 SHORT $LN4@atan2
  0021d	66 0f 2e fe	 ucomisd xmm7, xmm6
  00221	7a 1e		 jp	 SHORT $LN4@atan2
  00223	75 1c		 jne	 SHORT $LN4@atan2
; Line 450
  00225	f2 0f 10 05 00
	00 00 00	 movsdx	 xmm0, QWORD PTR __real@3ff921fb54442d18
; Line 460
  0022d	0f 28 74 24 20	 movaps	 xmm6, XMMWORD PTR [rsp+32]
  00232	0f 28 7c 24 10	 movaps	 xmm7, XMMWORD PTR [rsp+16]
  00237	44 0f 28 04 24	 movaps	 xmm8, XMMWORD PTR [rsp]
  0023c	48 83 c4 38	 add	 rsp, 56			; 00000038H
  00240	c3		 ret	 0
$LN4@atan2:
; Line 452
  00241	66 41 0f 2f f0	 comisd	 xmm6, xmm8
  00246	76 24		 jbe	 SHORT $LN2@atan2
  00248	66 0f 2e fe	 ucomisd xmm7, xmm6
  0024c	7a 1e		 jp	 SHORT $LN2@atan2
  0024e	75 1c		 jne	 SHORT $LN2@atan2
; Line 454
  00250	f2 0f 10 05 00
	00 00 00	 movsdx	 xmm0, QWORD PTR __real@bff921fb54442d18
; Line 460
  00258	0f 28 74 24 20	 movaps	 xmm6, XMMWORD PTR [rsp+32]
  0025d	0f 28 7c 24 10	 movaps	 xmm7, XMMWORD PTR [rsp+16]
  00262	44 0f 28 04 24	 movaps	 xmm8, XMMWORD PTR [rsp]
  00267	48 83 c4 38	 add	 rsp, 56			; 00000038H
  0026b	c3		 ret	 0
$LN2@atan2:
  0026c	0f 28 7c 24 10	 movaps	 xmm7, XMMWORD PTR [rsp+16]
  00271	44 0f 28 04 24	 movaps	 xmm8, XMMWORD PTR [rsp]
  00276	0f 28 c6	 movaps	 xmm0, xmm6
  00279	0f 28 74 24 20	 movaps	 xmm6, XMMWORD PTR [rsp+32]
  0027e	48 83 c4 38	 add	 rsp, 56			; 00000038H
  00282	c3		 ret	 0
____atan2 ENDP
_TEXT	ENDS
; Function compile flags: /Ogtpy
;	COMDAT __isinf
_TEXT	SEGMENT
u$ = 8
d$ = 8
__isinf	PROC						; COMDAT
; File f:\0\luaspq-1.1\luaspq-1.1\src\lmathlibc.c
; Line 420
  00000	f2 0f 11 44 24
	08		 movsdx	 QWORD PTR u$[rsp], xmm0
; Line 421
  00006	48 b9 00 00 00
	00 00 00 f0 7f	 mov	 rcx, 9218868437227405312 ; 7ff0000000000000H
  00010	48 8b 44 24 08	 mov	 rax, QWORD PTR u$[rsp]
  00015	48 3b c1	 cmp	 rax, rcx
  00018	75 06		 jne	 SHORT $LN3@isinf
  0001a	b8 01 00 00 00	 mov	 eax, 1
; Line 422
  0001f	c3		 ret	 0
$LN3@isinf:
; Line 421
  00020	33 c9		 xor	 ecx, ecx
  00022	48 ba 00 00 00
	00 00 00 f0 ff	 mov	 rdx, -4503599627370496	; fff0000000000000H
  0002c	48 3b c2	 cmp	 rax, rdx
  0002f	0f 95 c1	 setne	 cl
  00032	8d 41 ff	 lea	 eax, DWORD PTR [rcx-1]
; Line 422
  00035	c3		 ret	 0
__isinf	ENDP
_TEXT	ENDS
; Function compile flags: /Ogtpy
;	COMDAT __isnan
_TEXT	SEGMENT
u$ = 8
d$ = 8
__isnan	PROC						; COMDAT
; File f:\0\luaspq-1.1\luaspq-1.1\src\lmathlibc.c
; Line 410
  00000	f2 0f 11 44 24
	08		 movsdx	 QWORD PTR u$[rsp], xmm0
  00006	48 b9 00 00 00
	00 00 00 10 00	 mov	 rcx, 4503599627370496	; 0010000000000000H
  00010	48 ba ff ff ff
	ff ff ff f7 7f	 mov	 rdx, 9221120237041090559 ; 7ff7ffffffffffffH
  0001a	48 8b 44 24 08	 mov	 rax, QWORD PTR u$[rsp]
  0001f	48 03 c8	 add	 rcx, rax
  00022	48 85 ca	 test	 rcx, rdx
  00025	75 15		 jne	 SHORT $LN5@isnan
  00027	48 b9 00 00 00
	00 00 00 f0 ff	 mov	 rcx, -4503599627370496	; fff0000000000000H
  00031	48 3b c1	 cmp	 rax, rcx
  00034	74 06		 je	 SHORT $LN5@isnan
; Line 411
  00036	b8 01 00 00 00	 mov	 eax, 1
; Line 412
  0003b	c3		 ret	 0
$LN5@isnan:
; Line 411
  0003c	33 c0		 xor	 eax, eax
; Line 412
  0003e	c3		 ret	 0
__isnan	ENDP
_TEXT	ENDS
; Function compile flags: /Ogtpy
;	COMDAT _Convert
_TEXT	SEGMENT
t$ = 8
_Convert PROC						; COMDAT
; File f:\0\luaspq-1.1\luaspq-1.1\src\lmathlibc.c
; Line 390
  00000	0f 57 db	 xorps	 xmm3, xmm3
; Line 392
  00003	f2 0f 2c c0	 cvttsd2si eax, xmm0
  00007	66 0f 2f c3	 comisd	 xmm0, xmm3
  0000b	73 02		 jae	 SHORT $LN3@Convert
  0000d	ff c8		 dec	 eax
$LN3@Convert:
  0000f	66 0f 6e c8	 movd	 xmm1, eax
  00013	f3 0f e6 c9	 cvtdq2pd xmm1, xmm1
; Line 393
  00017	f2 0f 5c c1	 subsd	 xmm0, xmm1
  0001b	f2 0f 59 05 00
	00 00 00	 mulsd	 xmm0, QWORD PTR __real@404e000000000000
; Line 394
  00023	66 0f 2f c3	 comisd	 xmm0, xmm3
  00027	f2 0f 2c c0	 cvttsd2si eax, xmm0
  0002b	73 02		 jae	 SHORT $LN7@Convert
  0002d	ff c8		 dec	 eax
$LN7@Convert:
; Line 396
  0002f	66 0f 2f d9	 comisd	 xmm3, xmm1
  00033	f2 0f 10 25 00
	00 00 00	 movsdx	 xmm4, QWORD PTR __real@bff0000000000000
  0003b	66 0f 6e d0	 movd	 xmm2, eax
  0003f	f3 0f e6 d2	 cvtdq2pd xmm2, xmm2
  00043	f2 0f 5c c2	 subsd	 xmm0, xmm2
  00047	f2 0f 59 05 00
	00 00 00	 mulsd	 xmm0, QWORD PTR __real@404e000000000000
  0004f	76 05		 jbe	 SHORT $LN14@Convert
  00051	0f 28 ec	 movaps	 xmm5, xmm4
  00054	eb 08		 jmp	 SHORT $LN15@Convert
$LN14@Convert:
  00056	f2 0f 10 2d 00
	00 00 00	 movsdx	 xmm5, QWORD PTR __real@3ff0000000000000
$LN15@Convert:
  0005e	66 0f 2f d9	 comisd	 xmm3, xmm1
  00062	76 04		 jbe	 SHORT $LN11@Convert
  00064	f2 0f 59 cc	 mulsd	 xmm1, xmm4
$LN11@Convert:
  00068	f2 0f 5e 15 00
	00 00 00	 divsd	 xmm2, QWORD PTR __real@404e000000000000
  00070	f2 0f 5e 05 00
	00 00 00	 divsd	 xmm0, QWORD PTR __real@40ac200000000000
  00078	f2 0f 58 d1	 addsd	 xmm2, xmm1
  0007c	f2 0f 58 d0	 addsd	 xmm2, xmm0
  00080	f2 0f 59 15 00
	00 00 00	 mulsd	 xmm2, QWORD PTR __real@400921fb54442d18
  00088	f2 0f 59 d5	 mulsd	 xmm2, xmm5
  0008c	f2 0f 5e 15 00
	00 00 00	 divsd	 xmm2, QWORD PTR __real@4066800000000000
; Line 397
  00094	0f 28 c2	 movaps	 xmm0, xmm2
; Line 398
  00097	c3		 ret	 0
_Convert ENDP
_TEXT	ENDS
; Function compile flags: /Ogtpy
;	COMDAT eee
_TEXT	SEGMENT
x$ = 80
eee	PROC						; COMDAT
; File f:\0\luaspq-1.1\luaspq-1.1\src\lmathlibc.c
; Line 248
$LN32:
  00000	48 83 ec 48	 sub	 rsp, 72			; 00000048H
; Line 249
  00004	66 0f 2f 05 00
	00 00 00	 comisd	 xmm0, QWORD PTR __real@3f50624dd2f1a9fc
  0000c	0f 29 7c 24 20	 movaps	 XMMWORD PTR [rsp+32], xmm7
  00011	0f 28 f8	 movaps	 xmm7, xmm0
  00014	76 1e		 jbe	 SHORT $LN1@eee
; Line 251
  00016	f2 0f 59 3d 00
	00 00 00	 mulsd	 xmm7, QWORD PTR __real@3fe0000000000000
  0001e	0f 28 c7	 movaps	 xmm0, xmm7
  00021	e8 00 00 00 00	 call	 eee
; Line 252
  00026	f2 0f 59 c0	 mulsd	 xmm0, xmm0
; Line 255
  0002a	0f 28 7c 24 20	 movaps	 xmm7, XMMWORD PTR [rsp+32]
  0002f	48 83 c4 48	 add	 rsp, 72			; 00000048H
  00033	c3		 ret	 0
$LN1@eee:
; Line 254
  00034	ba 01 00 00 00	 mov	 edx, 1
  00039	0f 29 74 24 30	 movaps	 XMMWORD PTR [rsp+48], xmm6
  0003e	e8 00 00 00 00	 call	 __pow
  00043	ba 02 00 00 00	 mov	 edx, 2
  00048	0f 28 f0	 movaps	 xmm6, xmm0
  0004b	f2 0f 59 f7	 mulsd	 xmm6, xmm7
  0004f	f2 0f 59 f0	 mulsd	 xmm6, xmm0
  00053	0f 28 c7	 movaps	 xmm0, xmm7
  00056	e8 00 00 00 00	 call	 __pow
  0005b	0f 28 d0	 movaps	 xmm2, xmm0
  0005e	0f 28 c8	 movaps	 xmm1, xmm0
  00061	f2 0f 59 c8	 mulsd	 xmm1, xmm0
  00065	f2 0f 59 d7	 mulsd	 xmm2, xmm7
  00069	f2 0f 5e 0d 00
	00 00 00	 divsd	 xmm1, QWORD PTR __real@4038000000000000
  00071	f2 0f 59 d0	 mulsd	 xmm2, xmm0
  00075	0f 28 c7	 movaps	 xmm0, xmm7
  00078	f2 0f 5e 15 00
	00 00 00	 divsd	 xmm2, QWORD PTR __real@405e000000000000
  00080	f2 0f 59 c7	 mulsd	 xmm0, xmm7
  00084	f2 0f 58 3d 00
	00 00 00	 addsd	 xmm7, QWORD PTR __real@3ff0000000000000
  0008c	f2 0f 59 05 00
	00 00 00	 mulsd	 xmm0, QWORD PTR __real@3fe0000000000000
  00094	f2 0f 58 c7	 addsd	 xmm0, xmm7
; Line 255
  00098	0f 28 7c 24 20	 movaps	 xmm7, XMMWORD PTR [rsp+32]
  0009d	f2 0f 58 c6	 addsd	 xmm0, xmm6
  000a1	0f 28 74 24 30	 movaps	 xmm6, XMMWORD PTR [rsp+48]
  000a6	f2 0f 58 c1	 addsd	 xmm0, xmm1
  000aa	f2 0f 58 c2	 addsd	 xmm0, xmm2
  000ae	48 83 c4 48	 add	 rsp, 72			; 00000048H
  000b2	c3		 ret	 0
eee	ENDP
_TEXT	ENDS
; Function compile flags: /Ogtpy
;	COMDAT asr_3
_TEXT	SEGMENT
a$ = 112
b$ = 120
eps$ = 128
flag$ = 136
asr_3	PROC						; COMDAT
; File f:\0\luaspq-1.1\luaspq-1.1\src\lmathlibc.c
; Line 318
$LN4:
  00000	40 53		 push	 rbx
  00002	48 83 ec 60	 sub	 rsp, 96			; 00000060H
  00006	0f 29 74 24 50	 movaps	 XMMWORD PTR [rsp+80], xmm6
  0000b	0f 29 7c 24 40	 movaps	 XMMWORD PTR [rsp+64], xmm7
; Line 319
  00010	45 8b c1	 mov	 r8d, r9d
  00013	41 8b d9	 mov	 ebx, r9d
  00016	0f 28 f2	 movaps	 xmm6, xmm2
  00019	0f 28 f9	 movaps	 xmm7, xmm1
  0001c	44 0f 29 44 24
	30		 movaps	 XMMWORD PTR [rsp+48], xmm8
  00022	44 0f 28 c0	 movaps	 xmm8, xmm0
  00026	e8 00 00 00 00	 call	 simpson_1
  0002b	0f 28 d6	 movaps	 xmm2, xmm6
  0002e	89 5c 24 20	 mov	 DWORD PTR [rsp+32], ebx
  00032	0f 28 d8	 movaps	 xmm3, xmm0
  00035	41 0f 28 c0	 movaps	 xmm0, xmm8
  00039	0f 28 cf	 movaps	 xmm1, xmm7
  0003c	e8 00 00 00 00	 call	 asr_2
; Line 320
  00041	0f 28 74 24 50	 movaps	 xmm6, XMMWORD PTR [rsp+80]
  00046	0f 28 7c 24 40	 movaps	 xmm7, XMMWORD PTR [rsp+64]
  0004b	44 0f 28 44 24
	30		 movaps	 xmm8, XMMWORD PTR [rsp+48]
  00051	48 83 c4 60	 add	 rsp, 96			; 00000060H
  00055	5b		 pop	 rbx
  00056	c3		 ret	 0
asr_3	ENDP
_TEXT	ENDS
; Function compile flags: /Ogtpy
;	COMDAT asr_2
_TEXT	SEGMENT
a$ = 160
b$ = 168
eps$ = 176
A$ = 184
flag$ = 192
asr_2	PROC						; COMDAT
; File f:\0\luaspq-1.1\luaspq-1.1\src\lmathlibc.c
; Line 304
$LN9:
  00000	48 8b c4	 mov	 rax, rsp
  00003	53		 push	 rbx
  00004	48 81 ec 90 00
	00 00		 sub	 rsp, 144		; 00000090H
; Line 306
  0000b	8b 9c 24 c0 00
	00 00		 mov	 ebx, DWORD PTR flag$[rsp]
  00012	0f 29 70 e8	 movaps	 XMMWORD PTR [rax-24], xmm6
  00016	0f 29 78 d8	 movaps	 XMMWORD PTR [rax-40], xmm7
  0001a	44 8b c3	 mov	 r8d, ebx
  0001d	0f 28 f3	 movaps	 xmm6, xmm3
  00020	0f 28 fa	 movaps	 xmm7, xmm2
  00023	44 0f 29 40 c8	 movaps	 XMMWORD PTR [rax-56], xmm8
  00028	44 0f 29 48 b8	 movaps	 XMMWORD PTR [rax-72], xmm9
  0002d	44 0f 29 50 a8	 movaps	 XMMWORD PTR [rax-88], xmm10
  00032	44 0f 28 c1	 movaps	 xmm8, xmm1
  00036	44 0f 28 d1	 movaps	 xmm10, xmm1
  0003a	44 0f 28 c8	 movaps	 xmm9, xmm0
  0003e	f2 44 0f 5c c0	 subsd	 xmm8, xmm0
  00043	44 0f 29 60 98	 movaps	 XMMWORD PTR [rax-104], xmm12
  00048	f2 44 0f 59 05
	00 00 00 00	 mulsd	 xmm8, QWORD PTR __real@3fe0000000000000
  00051	f2 44 0f 58 c0	 addsd	 xmm8, xmm0
  00056	41 0f 28 c8	 movaps	 xmm1, xmm8
  0005a	e8 00 00 00 00	 call	 simpson_1
  0005f	41 0f 28 ca	 movaps	 xmm1, xmm10
  00063	44 8b c3	 mov	 r8d, ebx
  00066	44 0f 28 e0	 movaps	 xmm12, xmm0
  0006a	41 0f 28 c0	 movaps	 xmm0, xmm8
  0006e	e8 00 00 00 00	 call	 simpson_1
  00073	0f 57 c9	 xorps	 xmm1, xmm1
; Line 307
  00076	0f 28 e0	 movaps	 xmm4, xmm0
  00079	0f 28 e8	 movaps	 xmm5, xmm0
  0007c	f2 41 0f 58 e4	 addsd	 xmm4, xmm12
  00081	0f 28 c4	 movaps	 xmm0, xmm4
  00084	f2 0f 5c c6	 subsd	 xmm0, xmm6
  00088	66 0f 2f c1	 comisd	 xmm0, xmm1
  0008c	0f 28 d0	 movaps	 xmm2, xmm0
  0008f	77 07		 ja	 SHORT $LN7@asr_2
  00091	0f 57 15 00 00
	00 00		 xorps	 xmm2, QWORD PTR __xmm@80000000000000008000000000000000
$LN7@asr_2:
  00098	f2 0f 10 1d 00
	00 00 00	 movsdx	 xmm3, QWORD PTR __real@402e000000000000
  000a0	0f 28 cf	 movaps	 xmm1, xmm7
  000a3	f2 0f 59 cb	 mulsd	 xmm1, xmm3
  000a7	66 0f 2f ca	 comisd	 xmm1, xmm2
  000ab	72 0a		 jb	 SHORT $LN1@asr_2
; Line 309
  000ad	f2 0f 5e c3	 divsd	 xmm0, xmm3
  000b1	f2 0f 58 c4	 addsd	 xmm0, xmm4
  000b5	eb 41		 jmp	 SHORT $LN2@asr_2
$LN1@asr_2:
; Line 311
  000b7	f2 0f 59 3d 00
	00 00 00	 mulsd	 xmm7, QWORD PTR __real@3fe0000000000000
  000bf	0f 28 dd	 movaps	 xmm3, xmm5
  000c2	41 0f 28 ca	 movaps	 xmm1, xmm10
  000c6	89 5c 24 20	 mov	 DWORD PTR [rsp+32], ebx
  000ca	41 0f 28 c0	 movaps	 xmm0, xmm8
  000ce	0f 28 d7	 movaps	 xmm2, xmm7
  000d1	e8 00 00 00 00	 call	 asr_2
  000d6	41 0f 28 dc	 movaps	 xmm3, xmm12
  000da	0f 28 d7	 movaps	 xmm2, xmm7
  000dd	89 5c 24 20	 mov	 DWORD PTR [rsp+32], ebx
  000e1	0f 28 f0	 movaps	 xmm6, xmm0
  000e4	41 0f 28 c1	 movaps	 xmm0, xmm9
  000e8	41 0f 28 c8	 movaps	 xmm1, xmm8
  000ec	e8 00 00 00 00	 call	 asr_2
  000f1	f2 0f 58 f0	 addsd	 xmm6, xmm0
  000f5	0f 28 c6	 movaps	 xmm0, xmm6
$LN2@asr_2:
; Line 312
  000f8	0f 28 b4 24 80
	00 00 00	 movaps	 xmm6, XMMWORD PTR [rsp+128]
  00100	0f 28 7c 24 70	 movaps	 xmm7, XMMWORD PTR [rsp+112]
  00105	44 0f 28 44 24
	60		 movaps	 xmm8, XMMWORD PTR [rsp+96]
  0010b	44 0f 28 4c 24
	50		 movaps	 xmm9, XMMWORD PTR [rsp+80]
  00111	44 0f 28 54 24
	40		 movaps	 xmm10, XMMWORD PTR [rsp+64]
  00117	44 0f 28 64 24
	30		 movaps	 xmm12, XMMWORD PTR [rsp+48]
  0011d	48 81 c4 90 00
	00 00		 add	 rsp, 144		; 00000090H
  00124	5b		 pop	 rbx
  00125	c3		 ret	 0
asr_2	ENDP
_TEXT	ENDS
; Function compile flags: /Ogtpy
;	COMDAT asr_1
_TEXT	SEGMENT
a$ = 64
b$ = 72
eps$ = 80
asr_1	PROC						; COMDAT
; File f:\0\luaspq-1.1\luaspq-1.1\src\lmathlibc.c
; Line 314
$LN16:
  00000	48 83 ec 38	 sub	 rsp, 56			; 00000038H
; Line 315
  00004	f2 0f 10 2d 00
	00 00 00	 movsdx	 xmm5, QWORD PTR __real@3ff0000000000000
  0000c	f2 0f 10 1d 00
	00 00 00	 movsdx	 xmm3, QWORD PTR __real@4010000000000000
  00014	0f 29 74 24 20	 movaps	 XMMWORD PTR [rsp+32], xmm6
  00019	0f 28 f1	 movaps	 xmm6, xmm1
  0001c	f2 0f 5c f0	 subsd	 xmm6, xmm0
  00020	0f 28 e6	 movaps	 xmm4, xmm6
  00023	f2 0f 59 25 00
	00 00 00	 mulsd	 xmm4, QWORD PTR __real@3fe0000000000000
  0002b	f2 0f 58 e0	 addsd	 xmm4, xmm0
  0002f	f2 0f 5e dc	 divsd	 xmm3, xmm4
  00033	0f 28 e5	 movaps	 xmm4, xmm5
  00036	f2 0f 5e e9	 divsd	 xmm5, xmm1
  0003a	f2 0f 5e e0	 divsd	 xmm4, xmm0
  0003e	f2 0f 58 dc	 addsd	 xmm3, xmm4
  00042	f2 0f 58 dd	 addsd	 xmm3, xmm5
  00046	f2 0f 59 de	 mulsd	 xmm3, xmm6
  0004a	f2 0f 5e 1d 00
	00 00 00	 divsd	 xmm3, QWORD PTR __real@4018000000000000
; Line 316
  00052	0f 28 74 24 20	 movaps	 xmm6, XMMWORD PTR [rsp+32]
  00057	48 83 c4 38	 add	 rsp, 56			; 00000038H
; Line 315
  0005b	e9 00 00 00 00	 jmp	 asr_4
asr_1	ENDP
_TEXT	ENDS
; Function compile flags: /Ogtpy
;	COMDAT asr_4
_TEXT	SEGMENT
a$ = 176
b$ = 184
eps$ = 192
A$ = 200
asr_4	PROC						; COMDAT
; File f:\0\luaspq-1.1\luaspq-1.1\src\lmathlibc.c
; Line 294
$LN33:
  00000	48 8b c4	 mov	 rax, rsp
  00003	48 81 ec a8 00
	00 00		 sub	 rsp, 168		; 000000a8H
; Line 296
  0000a	f2 0f 10 2d 00
	00 00 00	 movsdx	 xmm5, QWORD PTR __real@3ff0000000000000
  00012	0f 29 70 e8	 movaps	 XMMWORD PTR [rax-24], xmm6
  00016	0f 29 78 d8	 movaps	 XMMWORD PTR [rax-40], xmm7
  0001a	0f 28 f3	 movaps	 xmm6, xmm3
  0001d	0f 28 dd	 movaps	 xmm3, xmm5
  00020	0f 28 fa	 movaps	 xmm7, xmm2
  00023	44 0f 29 40 c8	 movaps	 XMMWORD PTR [rax-56], xmm8
  00028	44 0f 29 48 b8	 movaps	 XMMWORD PTR [rax-72], xmm9
  0002d	44 0f 29 50 a8	 movaps	 XMMWORD PTR [rax-88], xmm10
  00032	f2 44 0f 10 0d
	00 00 00 00	 movsdx	 xmm9, QWORD PTR __real@4010000000000000
  0003b	44 0f 28 c1	 movaps	 xmm8, xmm1
  0003f	f2 44 0f 5c c0	 subsd	 xmm8, xmm0
  00044	45 0f 28 d1	 movaps	 xmm10, xmm9
  00048	44 0f 29 58 98	 movaps	 XMMWORD PTR [rax-104], xmm11
  0004d	44 0f 29 60 88	 movaps	 XMMWORD PTR [rax-120], xmm12
  00052	44 0f 29 6c 24
	20		 movaps	 XMMWORD PTR [rsp+32], xmm13
  00058	f2 44 0f 10 2d
	00 00 00 00	 movsdx	 xmm13, QWORD PTR __real@3fe0000000000000
  00061	44 0f 28 d8	 movaps	 xmm11, xmm0
  00065	44 0f 28 e1	 movaps	 xmm12, xmm1
  00069	f2 45 0f 59 c5	 mulsd	 xmm8, xmm13
  0006e	f2 44 0f 58 c0	 addsd	 xmm8, xmm0
  00073	41 0f 28 e0	 movaps	 xmm4, xmm8
  00077	f2 41 0f 5c c8	 subsd	 xmm1, xmm8
  0007c	f2 41 0f 5e d8	 divsd	 xmm3, xmm8
  00081	f2 0f 5c e0	 subsd	 xmm4, xmm0
  00085	0f 28 c4	 movaps	 xmm0, xmm4
  00088	f2 41 0f 59 c5	 mulsd	 xmm0, xmm13
  0008d	f2 41 0f 58 c3	 addsd	 xmm0, xmm11
  00092	f2 44 0f 5e d0	 divsd	 xmm10, xmm0
  00097	0f 28 c5	 movaps	 xmm0, xmm5
  0009a	f2 41 0f 5e ec	 divsd	 xmm5, xmm12
  0009f	f2 41 0f 5e c3	 divsd	 xmm0, xmm11
  000a4	f2 44 0f 58 d0	 addsd	 xmm10, xmm0
  000a9	0f 28 c1	 movaps	 xmm0, xmm1
  000ac	f2 41 0f 59 c5	 mulsd	 xmm0, xmm13
  000b1	f2 41 0f 58 c0	 addsd	 xmm0, xmm8
  000b6	f2 44 0f 58 d3	 addsd	 xmm10, xmm3
  000bb	f2 44 0f 5e c8	 divsd	 xmm9, xmm0
  000c0	f2 44 0f 59 d4	 mulsd	 xmm10, xmm4
  000c5	0f 57 c0	 xorps	 xmm0, xmm0
  000c8	f2 44 0f 58 cb	 addsd	 xmm9, xmm3
  000cd	f2 44 0f 58 cd	 addsd	 xmm9, xmm5
  000d2	f2 44 0f 5e 15
	00 00 00 00	 divsd	 xmm10, QWORD PTR __real@4018000000000000
  000db	f2 44 0f 59 c9	 mulsd	 xmm9, xmm1
  000e0	f2 44 0f 5e 0d
	00 00 00 00	 divsd	 xmm9, QWORD PTR __real@4018000000000000
; Line 297
  000e9	41 0f 28 e1	 movaps	 xmm4, xmm9
  000ed	f2 41 0f 58 e2	 addsd	 xmm4, xmm10
  000f2	0f 28 d4	 movaps	 xmm2, xmm4
  000f5	f2 0f 5c d6	 subsd	 xmm2, xmm6
  000f9	66 0f 2f d0	 comisd	 xmm2, xmm0
  000fd	0f 28 c2	 movaps	 xmm0, xmm2
  00100	77 07		 ja	 SHORT $LN31@asr_4
  00102	0f 57 05 00 00
	00 00		 xorps	 xmm0, QWORD PTR __xmm@80000000000000008000000000000000
$LN31@asr_4:
  00109	f2 0f 10 1d 00
	00 00 00	 movsdx	 xmm3, QWORD PTR __real@402e000000000000
  00111	0f 28 cf	 movaps	 xmm1, xmm7
  00114	f2 0f 59 cb	 mulsd	 xmm1, xmm3
  00118	66 0f 2f c8	 comisd	 xmm1, xmm0
  0011c	72 0d		 jb	 SHORT $LN1@asr_4
; Line 299
  0011e	f2 0f 5e d3	 divsd	 xmm2, xmm3
  00122	f2 0f 58 d4	 addsd	 xmm2, xmm4
  00126	0f 28 c2	 movaps	 xmm0, xmm2
  00129	eb 37		 jmp	 SHORT $LN2@asr_4
$LN1@asr_4:
; Line 301
  0012b	f2 41 0f 59 fd	 mulsd	 xmm7, xmm13
  00130	41 0f 28 d9	 movaps	 xmm3, xmm9
  00134	41 0f 28 cc	 movaps	 xmm1, xmm12
  00138	41 0f 28 c0	 movaps	 xmm0, xmm8
  0013c	0f 28 d7	 movaps	 xmm2, xmm7
  0013f	e8 00 00 00 00	 call	 asr_4
  00144	41 0f 28 da	 movaps	 xmm3, xmm10
  00148	0f 28 d7	 movaps	 xmm2, xmm7
  0014b	0f 28 f0	 movaps	 xmm6, xmm0
  0014e	41 0f 28 c3	 movaps	 xmm0, xmm11
  00152	41 0f 28 c8	 movaps	 xmm1, xmm8
  00156	e8 00 00 00 00	 call	 asr_4
  0015b	f2 0f 58 f0	 addsd	 xmm6, xmm0
  0015f	0f 28 c6	 movaps	 xmm0, xmm6
$LN2@asr_4:
; Line 302
  00162	44 0f 28 6c 24
	20		 movaps	 xmm13, XMMWORD PTR [rsp+32]
  00168	4c 8d 9c 24 a8
	00 00 00	 lea	 r11, QWORD PTR [rsp+168]
  00170	41 0f 28 73 e8	 movaps	 xmm6, XMMWORD PTR [r11-24]
  00175	41 0f 28 7b d8	 movaps	 xmm7, XMMWORD PTR [r11-40]
  0017a	45 0f 28 43 c8	 movaps	 xmm8, XMMWORD PTR [r11-56]
  0017f	45 0f 28 4b b8	 movaps	 xmm9, XMMWORD PTR [r11-72]
  00184	45 0f 28 53 a8	 movaps	 xmm10, XMMWORD PTR [r11-88]
  00189	45 0f 28 5b 98	 movaps	 xmm11, XMMWORD PTR [r11-104]
  0018e	45 0f 28 63 88	 movaps	 xmm12, XMMWORD PTR [r11-120]
  00193	49 8b e3	 mov	 rsp, r11
  00196	c3		 ret	 0
asr_4	ENDP
_TEXT	ENDS
; Function compile flags: /Ogtpy
;	COMDAT simpson_1
_TEXT	SEGMENT
a$ = 112
b$ = 120
flag$ = 128
simpson_1 PROC						; COMDAT
; File f:\0\luaspq-1.1\luaspq-1.1\src\lmathlibc.c
; Line 281
$LN12:
  00000	48 83 ec 68	 sub	 rsp, 104		; 00000068H
  00004	0f 29 7c 24 40	 movaps	 XMMWORD PTR [rsp+64], xmm7
  00009	44 0f 29 44 24
	30		 movaps	 XMMWORD PTR [rsp+48], xmm8
; Line 282
  0000f	0f 28 f9	 movaps	 xmm7, xmm1
  00012	f2 0f 5c f8	 subsd	 xmm7, xmm0
  00016	44 0f 28 c0	 movaps	 xmm8, xmm0
  0001a	44 0f 29 4c 24
	20		 movaps	 XMMWORD PTR [rsp+32], xmm9
  00020	0f 28 d7	 movaps	 xmm2, xmm7
  00023	44 0f 28 c9	 movaps	 xmm9, xmm1
  00027	f2 0f 59 15 00
	00 00 00	 mulsd	 xmm2, QWORD PTR __real@3fe0000000000000
  0002f	f2 0f 58 d0	 addsd	 xmm2, xmm0
; Line 283
  00033	41 83 f8 01	 cmp	 r8d, 1
  00037	75 37		 jne	 SHORT $LN2@simpson_1
; Line 285
  00039	f2 0f 10 05 00
	00 00 00	 movsdx	 xmm0, QWORD PTR __real@4010000000000000
  00041	f2 0f 5e c2	 divsd	 xmm0, xmm2
  00045	f2 0f 10 15 00
	00 00 00	 movsdx	 xmm2, QWORD PTR __real@3ff0000000000000
  0004d	0f 28 ca	 movaps	 xmm1, xmm2
  00050	f2 41 0f 5e c8	 divsd	 xmm1, xmm8
  00055	f2 41 0f 5e d1	 divsd	 xmm2, xmm9
  0005a	f2 0f 58 c1	 addsd	 xmm0, xmm1
  0005e	f2 0f 58 c2	 addsd	 xmm0, xmm2
  00062	f2 0f 59 c7	 mulsd	 xmm0, xmm7
  00066	f2 0f 5e 05 00
	00 00 00	 divsd	 xmm0, QWORD PTR __real@4018000000000000
  0006e	eb 56		 jmp	 SHORT $LN3@simpson_1
$LN2@simpson_1:
; Line 287
  00070	41 83 f8 02	 cmp	 r8d, 2
  00074	75 48		 jne	 SHORT $LN1@simpson_1
; Line 289
  00076	0f 28 c2	 movaps	 xmm0, xmm2
  00079	0f 29 74 24 50	 movaps	 XMMWORD PTR [rsp+80], xmm6
  0007e	e8 00 00 00 00	 call	 F2
  00083	0f 28 f0	 movaps	 xmm6, xmm0
  00086	41 0f 28 c0	 movaps	 xmm0, xmm8
  0008a	f2 0f 59 35 00
	00 00 00	 mulsd	 xmm6, QWORD PTR __real@4010000000000000
  00092	e8 00 00 00 00	 call	 F2
  00097	f2 0f 58 f0	 addsd	 xmm6, xmm0
  0009b	41 0f 28 c1	 movaps	 xmm0, xmm9
  0009f	e8 00 00 00 00	 call	 F2
  000a4	f2 0f 58 f0	 addsd	 xmm6, xmm0
  000a8	f2 0f 59 f7	 mulsd	 xmm6, xmm7
  000ac	f2 0f 5e 35 00
	00 00 00	 divsd	 xmm6, QWORD PTR __real@4018000000000000
  000b4	0f 28 c6	 movaps	 xmm0, xmm6
  000b7	0f 28 74 24 50	 movaps	 xmm6, XMMWORD PTR [rsp+80]
  000bc	eb 08		 jmp	 SHORT $LN3@simpson_1
$LN1@simpson_1:
; Line 291
  000be	f2 0f 10 05 00
	00 00 00	 movsdx	 xmm0, QWORD PTR __real@8000000000000000
$LN3@simpson_1:
; Line 292
  000c6	0f 28 7c 24 40	 movaps	 xmm7, XMMWORD PTR [rsp+64]
  000cb	44 0f 28 44 24
	30		 movaps	 xmm8, XMMWORD PTR [rsp+48]
  000d1	44 0f 28 4c 24
	20		 movaps	 xmm9, XMMWORD PTR [rsp+32]
  000d7	48 83 c4 68	 add	 rsp, 104		; 00000068H
  000db	c3		 ret	 0
simpson_1 ENDP
_TEXT	ENDS
; Function compile flags: /Ogtpy
;	COMDAT simpson_2
_TEXT	SEGMENT
a$ = 8
b$ = 16
simpson_2 PROC						; COMDAT
; File f:\0\luaspq-1.1\luaspq-1.1\src\lmathlibc.c
; Line 278
  00000	f2 0f 10 1d 00
	00 00 00	 movsdx	 xmm3, QWORD PTR __real@3ff0000000000000
  00008	f2 0f 10 25 00
	00 00 00	 movsdx	 xmm4, QWORD PTR __real@4010000000000000
  00010	0f 28 e9	 movaps	 xmm5, xmm1
  00013	f2 0f 5c e8	 subsd	 xmm5, xmm0
  00017	0f 28 d5	 movaps	 xmm2, xmm5
  0001a	f2 0f 59 15 00
	00 00 00	 mulsd	 xmm2, QWORD PTR __real@3fe0000000000000
  00022	f2 0f 58 d0	 addsd	 xmm2, xmm0
  00026	f2 0f 5e e2	 divsd	 xmm4, xmm2
  0002a	0f 28 d3	 movaps	 xmm2, xmm3
  0002d	f2 0f 5e d9	 divsd	 xmm3, xmm1
  00031	f2 0f 5e d0	 divsd	 xmm2, xmm0
  00035	f2 0f 58 e2	 addsd	 xmm4, xmm2
  00039	f2 0f 58 e3	 addsd	 xmm4, xmm3
  0003d	f2 0f 59 e5	 mulsd	 xmm4, xmm5
  00041	f2 0f 5e 25 00
	00 00 00	 divsd	 xmm4, QWORD PTR __real@4018000000000000
  00049	0f 28 c4	 movaps	 xmm0, xmm4
; Line 279
  0004c	c3		 ret	 0
simpson_2 ENDP
_TEXT	ENDS
; Function compile flags: /Ogtpy
;	COMDAT F2
_TEXT	SEGMENT
x$ = 8
F2	PROC						; COMDAT
; File f:\0\luaspq-1.1\luaspq-1.1\src\lmathlibc.c
; Line 274
  00000	f2 0f 10 2d 00
	00 00 00	 movsdx	 xmm5, QWORD PTR __real@3ff0000000000000
  00008	f2 0f 59 c0	 mulsd	 xmm0, xmm0
  0000c	0f 57 db	 xorps	 xmm3, xmm3
  0000f	0f 28 e5	 movaps	 xmm4, xmm5
  00012	f2 0f 5c e0	 subsd	 xmm4, xmm0
  00016	f2 0f 10 05 00
	00 00 00	 movsdx	 xmm0, QWORD PTR __real@3fe0000000000000
  0001e	0f 28 d4	 movaps	 xmm2, xmm4
  00021	f2 0f 59 d0	 mulsd	 xmm2, xmm0
  00025	66 0f 2e da	 ucomisd xmm3, xmm2
  00029	7a 05		 jp	 SHORT $LL4@F2
  0002b	74 20		 je	 SHORT $LN3@F2
  0002d	0f 1f 00	 npad	 3
$LL4@F2:
  00030	0f 28 da	 movaps	 xmm3, xmm2
  00033	0f 28 cc	 movaps	 xmm1, xmm4
  00036	f2 0f 5e ca	 divsd	 xmm1, xmm2
  0003a	f2 0f 58 ca	 addsd	 xmm1, xmm2
  0003e	0f 28 d1	 movaps	 xmm2, xmm1
  00041	f2 0f 59 d0	 mulsd	 xmm2, xmm0
  00045	66 0f 2e da	 ucomisd xmm3, xmm2
  00049	7a e5		 jp	 SHORT $LL4@F2
  0004b	75 e3		 jne	 SHORT $LL4@F2
$LN3@F2:
  0004d	f2 0f 5e eb	 divsd	 xmm5, xmm3
  00051	0f 28 c5	 movaps	 xmm0, xmm5
; Line 275
  00054	c3		 ret	 0
F2	ENDP
_TEXT	ENDS
; Function compile flags: /Ogtpy
;	COMDAT F1
_TEXT	SEGMENT
x$ = 8
F1	PROC						; COMDAT
; File f:\0\luaspq-1.1\luaspq-1.1\src\lmathlibc.c
; Line 269
  00000	0f 28 c8	 movaps	 xmm1, xmm0
; Line 270
  00003	f2 0f 10 05 00
	00 00 00	 movsdx	 xmm0, QWORD PTR __real@3ff0000000000000
  0000b	f2 0f 5e c1	 divsd	 xmm0, xmm1
; Line 271
  0000f	c3		 ret	 0
F1	ENDP
_TEXT	ENDS
; Function compile flags: /Ogtpy
;	COMDAT __fabs
_TEXT	SEGMENT
value$ = 8
__fabs	PROC						; COMDAT
; File f:\0\luaspq-1.1\luaspq-1.1\src\lmathlibc.c
; Line 476
  00000	0f 57 c9	 xorps	 xmm1, xmm1
; Line 477
  00003	66 0f 2f c1	 comisd	 xmm0, xmm1
  00007	77 07		 ja	 SHORT $LN4@fabs
  00009	0f 57 05 00 00
	00 00		 xorps	 xmm0, QWORD PTR __xmm@80000000000000008000000000000000
$LN4@fabs:
; Line 478
  00010	c3		 ret	 0
__fabs	ENDP
_TEXT	ENDS
; Function compile flags: /Ogtpy
;	COMDAT __fmod
_TEXT	SEGMENT
_X$ = 8
_Y$ = 16
__fmod	PROC						; COMDAT
; File f:\0\luaspq-1.1\luaspq-1.1\src\lmathlibc.c
; Line 401
  00000	0f 28 d0	 movaps	 xmm2, xmm0
  00003	f2 0f 5e d1	 divsd	 xmm2, xmm1
  00007	f2 0f 2c c2	 cvttsd2si eax, xmm2
  0000b	66 0f 6e d8	 movd	 xmm3, eax
  0000f	f3 0f e6 db	 cvtdq2pd xmm3, xmm3
  00013	f2 0f 59 d9	 mulsd	 xmm3, xmm1
  00017	f2 0f 5c c3	 subsd	 xmm0, xmm3
; Line 402
  0001b	c3		 ret	 0
__fmod	ENDP
_TEXT	ENDS
; Function compile flags: /Ogtpy
;	COMDAT __tanh
_TEXT	SEGMENT
x$ = 48
__tanh	PROC						; COMDAT
; File f:\0\luaspq-1.1\luaspq-1.1\src\lmathlibc.c
; Line 373
$LN4:
  00000	48 83 ec 28	 sub	 rsp, 40			; 00000028H
; Line 374
  00004	e8 00 00 00 00	 call	 _exp
; Line 375
  00009	f2 0f 10 0d 00
	00 00 00	 movsdx	 xmm1, QWORD PTR __real@4000000000000000
  00011	0f 28 d0	 movaps	 xmm2, xmm0
  00014	f2 0f 10 05 00
	00 00 00	 movsdx	 xmm0, QWORD PTR __real@3ff0000000000000
  0001c	f2 0f 59 d2	 mulsd	 xmm2, xmm2
  00020	f2 0f 58 d0	 addsd	 xmm2, xmm0
  00024	f2 0f 5e ca	 divsd	 xmm1, xmm2
  00028	f2 0f 5c c1	 subsd	 xmm0, xmm1
; Line 376
  0002c	48 83 c4 28	 add	 rsp, 40			; 00000028H
  00030	c3		 ret	 0
__tanh	ENDP
_TEXT	ENDS
; Function compile flags: /Ogtpy
;	COMDAT __cosh
_TEXT	SEGMENT
x$ = 80
__cosh	PROC						; COMDAT
; File f:\0\luaspq-1.1\luaspq-1.1\src\lmathlibc.c
; Line 369
$LN4:
  00000	48 83 ec 48	 sub	 rsp, 72			; 00000048H
  00004	0f 29 74 24 30	 movaps	 XMMWORD PTR [rsp+48], xmm6
  00009	0f 28 f0	 movaps	 xmm6, xmm0
; Line 370
  0000c	0f 57 05 00 00
	00 00		 xorps	 xmm0, QWORD PTR __xmm@80000000000000008000000000000000
  00013	0f 29 7c 24 20	 movaps	 XMMWORD PTR [rsp+32], xmm7
  00018	e8 00 00 00 00	 call	 _exp
  0001d	0f 28 f8	 movaps	 xmm7, xmm0
  00020	0f 28 c6	 movaps	 xmm0, xmm6
  00023	e8 00 00 00 00	 call	 _exp
; Line 371
  00028	0f 28 74 24 30	 movaps	 xmm6, XMMWORD PTR [rsp+48]
  0002d	f2 0f 58 f8	 addsd	 xmm7, xmm0
  00031	f2 0f 59 3d 00
	00 00 00	 mulsd	 xmm7, QWORD PTR __real@3fe0000000000000
  00039	0f 28 c7	 movaps	 xmm0, xmm7
  0003c	0f 28 7c 24 20	 movaps	 xmm7, XMMWORD PTR [rsp+32]
  00041	48 83 c4 48	 add	 rsp, 72			; 00000048H
  00045	c3		 ret	 0
__cosh	ENDP
_TEXT	ENDS
; Function compile flags: /Ogtpy
;	COMDAT __sinh
_TEXT	SEGMENT
x$ = 80
__sinh	PROC						; COMDAT
; File f:\0\luaspq-1.1\luaspq-1.1\src\lmathlibc.c
; Line 365
$LN4:
  00000	48 83 ec 48	 sub	 rsp, 72			; 00000048H
  00004	0f 29 74 24 30	 movaps	 XMMWORD PTR [rsp+48], xmm6
  00009	0f 29 7c 24 20	 movaps	 XMMWORD PTR [rsp+32], xmm7
  0000e	0f 28 f0	 movaps	 xmm6, xmm0
; Line 366
  00011	e8 00 00 00 00	 call	 _exp
  00016	0f 57 35 00 00
	00 00		 xorps	 xmm6, QWORD PTR __xmm@80000000000000008000000000000000
  0001d	0f 28 f8	 movaps	 xmm7, xmm0
  00020	0f 28 c6	 movaps	 xmm0, xmm6
  00023	e8 00 00 00 00	 call	 _exp
; Line 367
  00028	0f 28 74 24 30	 movaps	 xmm6, XMMWORD PTR [rsp+48]
  0002d	f2 0f 5c f8	 subsd	 xmm7, xmm0
  00031	f2 0f 59 3d 00
	00 00 00	 mulsd	 xmm7, QWORD PTR __real@3fe0000000000000
  00039	0f 28 c7	 movaps	 xmm0, xmm7
  0003c	0f 28 7c 24 20	 movaps	 xmm7, XMMWORD PTR [rsp+32]
  00041	48 83 c4 48	 add	 rsp, 72			; 00000048H
  00045	c3		 ret	 0
__sinh	ENDP
_TEXT	ENDS
; Function compile flags: /Ogtpy
;	COMDAT __atan
_TEXT	SEGMENT
x$ = 112
__atan	PROC						; COMDAT
; File f:\0\luaspq-1.1\luaspq-1.1\src\lmathlibc.c
; Line 349
$LN44:
  00000	48 83 ec 68	 sub	 rsp, 104		; 00000068H
  00004	0f 57 c9	 xorps	 xmm1, xmm1
  00007	44 0f 29 4c 24
	20		 movaps	 XMMWORD PTR [rsp+32], xmm9
  0000d	44 0f 28 c8	 movaps	 xmm9, xmm0
; Line 350
  00011	66 0f 2f c8	 comisd	 xmm1, xmm0
  00015	76 17		 jbe	 SHORT $LN3@atan
; Line 352
  00017	e8 00 00 00 00	 call	 __atan
  0001c	0f 57 05 00 00
	00 00		 xorps	 xmm0, QWORD PTR __xmm@80000000000000008000000000000000
; Line 363
  00023	44 0f 28 4c 24
	20		 movaps	 xmm9, XMMWORD PTR [rsp+32]
  00029	48 83 c4 68	 add	 rsp, 104		; 00000068H
  0002d	c3		 ret	 0
$LN3@atan:
  0002e	0f 29 74 24 50	 movaps	 XMMWORD PTR [rsp+80], xmm6
; Line 354
  00033	f2 0f 10 35 00
	00 00 00	 movsdx	 xmm6, QWORD PTR __real@3ff0000000000000
  0003b	66 0f 2f c6	 comisd	 xmm0, xmm6
  0003f	76 2b		 jbe	 SHORT $LN2@atan
; Line 356
  00041	f2 0f 5e f0	 divsd	 xmm6, xmm0
  00045	0f 28 c6	 movaps	 xmm0, xmm6
  00048	e8 00 00 00 00	 call	 __atan
  0004d	f2 0f 10 0d 00
	00 00 00	 movsdx	 xmm1, QWORD PTR __real@3ff921fb54442d18
  00055	0f 28 74 24 50	 movaps	 xmm6, XMMWORD PTR [rsp+80]
  0005a	f2 0f 5c c8	 subsd	 xmm1, xmm0
  0005e	0f 28 c1	 movaps	 xmm0, xmm1
; Line 363
  00061	44 0f 28 4c 24
	20		 movaps	 xmm9, XMMWORD PTR [rsp+32]
  00067	48 83 c4 68	 add	 rsp, 104		; 00000068H
  0006b	c3		 ret	 0
$LN2@atan:
; Line 358
  0006c	66 0f 2f 05 00
	00 00 00	 comisd	 xmm0, QWORD PTR __real@3f50624dd2f1a9fc
  00074	76 33		 jbe	 SHORT $LN1@atan
; Line 360
  00076	f2 0f 59 c0	 mulsd	 xmm0, xmm0
  0007a	f2 0f 58 c6	 addsd	 xmm0, xmm6
  0007e	e8 00 00 00 00	 call	 sqrt_1
  00083	f2 0f 5c c6	 subsd	 xmm0, xmm6
  00087	f2 41 0f 5e c1	 divsd	 xmm0, xmm9
  0008c	e8 00 00 00 00	 call	 __atan
  00091	0f 28 74 24 50	 movaps	 xmm6, XMMWORD PTR [rsp+80]
  00096	f2 0f 59 05 00
	00 00 00	 mulsd	 xmm0, QWORD PTR __real@4000000000000000
; Line 363
  0009e	44 0f 28 4c 24
	20		 movaps	 xmm9, XMMWORD PTR [rsp+32]
  000a4	48 83 c4 68	 add	 rsp, 104		; 00000068H
  000a8	c3		 ret	 0
$LN1@atan:
; Line 362
  000a9	ba 01 00 00 00	 mov	 edx, 1
  000ae	0f 29 7c 24 40	 movaps	 XMMWORD PTR [rsp+64], xmm7
  000b3	44 0f 29 44 24
	30		 movaps	 XMMWORD PTR [rsp+48], xmm8
  000b9	e8 00 00 00 00	 call	 __pow
  000be	ba 02 00 00 00	 mov	 edx, 2
  000c3	44 0f 28 c0	 movaps	 xmm8, xmm0
  000c7	f2 45 0f 59 c1	 mulsd	 xmm8, xmm9
  000cc	f2 44 0f 59 c0	 mulsd	 xmm8, xmm0
  000d1	41 0f 28 c1	 movaps	 xmm0, xmm9
  000d5	e8 00 00 00 00	 call	 __pow
  000da	ba 03 00 00 00	 mov	 edx, 3
  000df	0f 28 f8	 movaps	 xmm7, xmm0
  000e2	f2 41 0f 59 f9	 mulsd	 xmm7, xmm9
  000e7	f2 0f 59 f8	 mulsd	 xmm7, xmm0
  000eb	41 0f 28 c1	 movaps	 xmm0, xmm9
  000ef	e8 00 00 00 00	 call	 __pow
  000f4	ba 04 00 00 00	 mov	 edx, 4
  000f9	0f 28 f0	 movaps	 xmm6, xmm0
  000fc	f2 41 0f 59 f1	 mulsd	 xmm6, xmm9
  00101	f2 0f 59 f0	 mulsd	 xmm6, xmm0
  00105	41 0f 28 c1	 movaps	 xmm0, xmm9
  00109	e8 00 00 00 00	 call	 __pow
  0010e	f2 44 0f 5e 05
	00 00 00 00	 divsd	 xmm8, QWORD PTR __real@4008000000000000
  00117	f2 0f 5e 3d 00
	00 00 00	 divsd	 xmm7, QWORD PTR __real@4014000000000000
  0011f	0f 28 c8	 movaps	 xmm1, xmm0
  00122	f2 0f 5e 35 00
	00 00 00	 divsd	 xmm6, QWORD PTR __real@401c000000000000
  0012a	f2 41 0f 59 c9	 mulsd	 xmm1, xmm9
  0012f	f2 45 0f 5c c8	 subsd	 xmm9, xmm8
  00134	44 0f 28 44 24
	30		 movaps	 xmm8, XMMWORD PTR [rsp+48]
  0013a	f2 44 0f 58 cf	 addsd	 xmm9, xmm7
  0013f	0f 28 7c 24 40	 movaps	 xmm7, XMMWORD PTR [rsp+64]
  00144	f2 44 0f 5c ce	 subsd	 xmm9, xmm6
  00149	0f 28 74 24 50	 movaps	 xmm6, XMMWORD PTR [rsp+80]
  0014e	f2 0f 59 c8	 mulsd	 xmm1, xmm0
  00152	f2 0f 5e 0d 00
	00 00 00	 divsd	 xmm1, QWORD PTR __real@4022000000000000
  0015a	f2 44 0f 58 c9	 addsd	 xmm9, xmm1
  0015f	41 0f 28 c1	 movaps	 xmm0, xmm9
; Line 363
  00163	44 0f 28 4c 24
	20		 movaps	 xmm9, XMMWORD PTR [rsp+32]
  00169	48 83 c4 68	 add	 rsp, 104		; 00000068H
  0016d	c3		 ret	 0
__atan	ENDP
_TEXT	ENDS
; Function compile flags: /Ogtpy
;	COMDAT __acos
_TEXT	SEGMENT
x$ = 48
__acos	PROC						; COMDAT
; File f:\0\luaspq-1.1\luaspq-1.1\src\lmathlibc.c
; Line 341
$LN9:
  00000	48 83 ec 28	 sub	 rsp, 40			; 00000028H
  00004	0f 57 c9	 xorps	 xmm1, xmm1
; Line 342
  00007	66 0f 2f c1	 comisd	 xmm0, xmm1
  0000b	0f 28 c8	 movaps	 xmm1, xmm0
  0000e	77 07		 ja	 SHORT $LN7@acos
  00010	0f 57 0d 00 00
	00 00		 xorps	 xmm1, QWORD PTR __xmm@80000000000000008000000000000000
$LN7@acos:
  00017	66 0f 2f 0d 00
	00 00 00	 comisd	 xmm1, QWORD PTR __real@3ff0000000000000
  0001f	76 0d		 jbe	 SHORT $LN1@acos
; Line 344
  00021	f2 0f 10 05 00
	00 00 00	 movsdx	 xmm0, QWORD PTR __real@bff0000000000000
; Line 347
  00029	48 83 c4 28	 add	 rsp, 40			; 00000028H
  0002d	c3		 ret	 0
$LN1@acos:
; Line 346
  0002e	e8 00 00 00 00	 call	 __asin
  00033	f2 0f 10 0d 00
	00 00 00	 movsdx	 xmm1, QWORD PTR __real@3ff921fb54442d18
  0003b	f2 0f 5c c8	 subsd	 xmm1, xmm0
  0003f	0f 28 c1	 movaps	 xmm0, xmm1
; Line 347
  00042	48 83 c4 28	 add	 rsp, 40			; 00000028H
  00046	c3		 ret	 0
__acos	ENDP
_TEXT	ENDS
; Function compile flags: /Ogtpy
;	COMDAT __asin
_TEXT	SEGMENT
x$ = 144
__asin	PROC						; COMDAT
; File f:\0\luaspq-1.1\luaspq-1.1\src\lmathlibc.c
; Line 322
$LN28:
  00000	48 81 ec 88 00
	00 00		 sub	 rsp, 136		; 00000088H
; Line 323
  00007	f2 0f 10 1d 00
	00 00 00	 movsdx	 xmm3, QWORD PTR __xmm@80000000000000008000000000000000
  0000f	44 0f 29 44 24
	50		 movaps	 XMMWORD PTR [rsp+80], xmm8
  00015	44 0f 29 4c 24
	40		 movaps	 XMMWORD PTR [rsp+64], xmm9
  0001b	45 0f 57 c9	 xorps	 xmm9, xmm9
  0001f	44 0f 28 c0	 movaps	 xmm8, xmm0
  00023	66 41 0f 2f c1	 comisd	 xmm0, xmm9
  00028	77 03		 ja	 SHORT $LN9@asin
  0002a	0f 57 c3	 xorps	 xmm0, xmm3
$LN9@asin:
  0002d	f2 0f 10 15 00
	00 00 00	 movsdx	 xmm2, QWORD PTR __real@3ff0000000000000
  00035	66 0f 2f c2	 comisd	 xmm0, xmm2
  00039	76 1c		 jbe	 SHORT $LN3@asin
; Line 325
  0003b	f2 0f 10 05 00
	00 00 00	 movsdx	 xmm0, QWORD PTR __real@bff0000000000000
; Line 338
  00043	44 0f 28 44 24
	50		 movaps	 xmm8, XMMWORD PTR [rsp+80]
  00049	44 0f 28 4c 24
	40		 movaps	 xmm9, XMMWORD PTR [rsp+64]
  0004f	48 81 c4 88 00
	00 00		 add	 rsp, 136		; 00000088H
  00056	c3		 ret	 0
$LN3@asin:
; Line 328
  00057	66 45 0f 2f c8	 comisd	 xmm9, xmm8
  0005c	44 0f 29 54 24
	30		 movaps	 XMMWORD PTR [rsp+48], xmm10
  00062	44 0f 28 d2	 movaps	 xmm10, xmm2
  00066	76 0e		 jbe	 SHORT $LN2@asin
; Line 330
  00068	f2 44 0f 10 15
	00 00 00 00	 movsdx	 xmm10, QWORD PTR __real@bff0000000000000
; Line 331
  00071	f2 45 0f 59 c2	 mulsd	 xmm8, xmm10
$LN2@asin:
; Line 333
  00076	41 0f 28 c8	 movaps	 xmm1, xmm8
  0007a	f2 0f 5c ca	 subsd	 xmm1, xmm2
  0007e	66 41 0f 2f c9	 comisd	 xmm1, xmm9
  00083	77 03		 ja	 SHORT $LN13@asin
  00085	0f 57 cb	 xorps	 xmm1, xmm3
$LN13@asin:
  00088	f2 0f 10 05 00
	00 00 00	 movsdx	 xmm0, QWORD PTR __real@3e7ad7f29abcaf48
  00090	66 0f 2f c1	 comisd	 xmm0, xmm1
  00094	76 0d		 jbe	 SHORT $LN1@asin
; Line 335
  00096	f2 0f 10 05 00
	00 00 00	 movsdx	 xmm0, QWORD PTR __real@3ff921fb54442d18
  0009e	e9 88 00 00 00	 jmp	 $LN26@asin
$LN1@asin:
  000a3	0f 29 74 24 70	 movaps	 XMMWORD PTR [rsp+112], xmm6
  000a8	0f 29 7c 24 60	 movaps	 XMMWORD PTR [rsp+96], xmm7
; Line 337
  000ad	41 0f 28 f8	 movaps	 xmm7, xmm8
  000b1	f2 41 0f 5c f9	 subsd	 xmm7, xmm9
  000b6	0f 28 c7	 movaps	 xmm0, xmm7
  000b9	f2 0f 59 05 00
	00 00 00	 mulsd	 xmm0, QWORD PTR __real@3fe0000000000000
  000c1	f2 41 0f 58 c1	 addsd	 xmm0, xmm9
  000c6	e8 00 00 00 00	 call	 F2
  000cb	0f 28 f0	 movaps	 xmm6, xmm0
  000ce	41 0f 28 c1	 movaps	 xmm0, xmm9
  000d2	f2 0f 59 35 00
	00 00 00	 mulsd	 xmm6, QWORD PTR __real@4010000000000000
  000da	e8 00 00 00 00	 call	 F2
  000df	f2 0f 58 f0	 addsd	 xmm6, xmm0
  000e3	41 0f 28 c0	 movaps	 xmm0, xmm8
  000e7	e8 00 00 00 00	 call	 F2
  000ec	c7 44 24 20 02
	00 00 00	 mov	 DWORD PTR [rsp+32], 2
  000f4	f2 0f 10 15 00
	00 00 00	 movsdx	 xmm2, QWORD PTR __real@3e45798ee2308c3a
  000fc	f2 0f 58 f0	 addsd	 xmm6, xmm0
  00100	41 0f 28 c8	 movaps	 xmm1, xmm8
  00104	f2 0f 59 f7	 mulsd	 xmm6, xmm7
  00108	f2 0f 5e 35 00
	00 00 00	 divsd	 xmm6, QWORD PTR __real@4018000000000000
  00110	41 0f 28 c1	 movaps	 xmm0, xmm9
  00114	0f 28 de	 movaps	 xmm3, xmm6
  00117	e8 00 00 00 00	 call	 asr_2
  0011c	0f 28 7c 24 60	 movaps	 xmm7, XMMWORD PTR [rsp+96]
  00121	0f 28 74 24 70	 movaps	 xmm6, XMMWORD PTR [rsp+112]
  00126	f2 41 0f 59 c2	 mulsd	 xmm0, xmm10
$LN26@asin:
; Line 338
  0012b	44 0f 28 54 24
	30		 movaps	 xmm10, XMMWORD PTR [rsp+48]
  00131	44 0f 28 44 24
	50		 movaps	 xmm8, XMMWORD PTR [rsp+80]
  00137	44 0f 28 4c 24
	40		 movaps	 xmm9, XMMWORD PTR [rsp+64]
  0013d	48 81 c4 88 00
	00 00		 add	 rsp, 136		; 00000088H
  00144	c3		 ret	 0
__asin	ENDP
_TEXT	ENDS
; Function compile flags: /Ogtpy
;	COMDAT srand_2
_TEXT	SEGMENT
srand_2	PROC						; COMDAT
; File f:\0\luaspq-1.1\luaspq-1.1\src\lmathlibc.c
; Line 383
$LN8:
  00000	48 83 ec 28	 sub	 rsp, 40			; 00000028H
; Line 384
  00004	33 c9		 xor	 ecx, ecx
  00006	ff 15 00 00 00
	00		 call	 QWORD PTR __imp__time64
  0000c	89 05 00 00 00
	00		 mov	 DWORD PTR next, eax
; Line 385
  00012	48 83 c4 28	 add	 rsp, 40			; 00000028H
  00016	c3		 ret	 0
srand_2	ENDP
_TEXT	ENDS
; Function compile flags: /Ogtpy
;	COMDAT srand_1
_TEXT	SEGMENT
seed$ = 8
srand_1	PROC						; COMDAT
; File f:\0\luaspq-1.1\luaspq-1.1\src\lmathlibc.c
; Line 387
  00000	89 0d 00 00 00
	00		 mov	 DWORD PTR next, ecx
; Line 388
  00006	c3		 ret	 0
srand_1	ENDP
_TEXT	ENDS
; Function compile flags: /Ogtpy
;	COMDAT __rand
_TEXT	SEGMENT
__rand	PROC						; COMDAT
; File f:\0\luaspq-1.1\luaspq-1.1\src\lmathlibc.c
; Line 379
  00000	69 05 00 00 00
	00 6d 4e c6 41	 imul	 eax, DWORD PTR next, 1103515245 ; 41c64e6dH
  0000a	05 f5 df 7f 07	 add	 eax, 125820917		; 077fdff5H
  0000f	89 05 00 00 00
	00		 mov	 DWORD PTR next, eax
; Line 380
  00015	c1 e8 10	 shr	 eax, 16
  00018	25 ff 7f 00 00	 and	 eax, 32767		; 00007fffH
; Line 381
  0001d	c3		 ret	 0
__rand	ENDP
_TEXT	ENDS
; Function compile flags: /Ogtpy
;	COMDAT _powf
_TEXT	SEGMENT
a$ = 64
x$ = 72
_powf	PROC						; COMDAT
; File f:\0\luaspq-1.1\luaspq-1.1\src\lmathlibc.c
; Line 480
$LN20:
  00000	48 83 ec 38	 sub	 rsp, 56			; 00000038H
; Line 481
  00004	f2 0f 10 1d 00
	00 00 00	 movsdx	 xmm3, QWORD PTR __real@4010000000000000
  0000c	0f 28 e8	 movaps	 xmm5, xmm0
  0000f	0f 28 e0	 movaps	 xmm4, xmm0
  00012	0f 29 74 24 20	 movaps	 XMMWORD PTR [rsp+32], xmm6
  00017	f2 0f 10 05 00
	00 00 00	 movsdx	 xmm0, QWORD PTR __real@3ff0000000000000
  0001f	0f 28 f1	 movaps	 xmm6, xmm1
  00022	f2 0f 5c e0	 subsd	 xmm4, xmm0
  00026	0f 28 c8	 movaps	 xmm1, xmm0
  00029	f2 0f 5e cd	 divsd	 xmm1, xmm5
  0002d	0f 28 d4	 movaps	 xmm2, xmm4
  00030	f2 0f 59 15 00
	00 00 00	 mulsd	 xmm2, QWORD PTR __real@3fe0000000000000
  00038	f2 0f 58 d0	 addsd	 xmm2, xmm0
  0003c	f2 0f 5e da	 divsd	 xmm3, xmm2
  00040	f2 0f 10 15 00
	00 00 00	 movsdx	 xmm2, QWORD PTR __real@3e45798ee2308c3a
  00048	f2 0f 58 d8	 addsd	 xmm3, xmm0
  0004c	f2 0f 58 d9	 addsd	 xmm3, xmm1
  00050	0f 28 cd	 movaps	 xmm1, xmm5
  00053	f2 0f 59 dc	 mulsd	 xmm3, xmm4
  00057	f2 0f 5e 1d 00
	00 00 00	 divsd	 xmm3, QWORD PTR __real@4018000000000000
  0005f	e8 00 00 00 00	 call	 asr_4
  00064	f2 0f 59 c6	 mulsd	 xmm0, xmm6
; Line 482
  00068	0f 28 74 24 20	 movaps	 xmm6, XMMWORD PTR [rsp+32]
  0006d	48 83 c4 38	 add	 rsp, 56			; 00000038H
; Line 481
  00071	e9 00 00 00 00	 jmp	 _exp
_powf	ENDP
_TEXT	ENDS
; Function compile flags: /Ogtpy
;	COMDAT _log2
_TEXT	SEGMENT
n$ = 80
_log2	PROC						; COMDAT
; File f:\0\luaspq-1.1\luaspq-1.1\src\lmathlibc.c
; Line 265
$LN36:
  00000	48 83 ec 48	 sub	 rsp, 72			; 00000048H
; Line 266
  00004	f2 0f 10 1d 00
	00 00 00	 movsdx	 xmm3, QWORD PTR __real@4010000000000000
  0000c	0f 28 d0	 movaps	 xmm2, xmm0
  0000f	0f 29 7c 24 30	 movaps	 XMMWORD PTR [rsp+48], xmm7
  00014	44 0f 29 44 24
	20		 movaps	 XMMWORD PTR [rsp+32], xmm8
  0001a	f2 44 0f 10 05
	00 00 00 00	 movsdx	 xmm8, QWORD PTR __real@3ff0000000000000
  00023	f2 41 0f 5c d0	 subsd	 xmm2, xmm8
  00028	0f 28 ca	 movaps	 xmm1, xmm2
  0002b	f2 0f 59 0d 00
	00 00 00	 mulsd	 xmm1, QWORD PTR __real@3fe0000000000000
  00033	f2 41 0f 58 c8	 addsd	 xmm1, xmm8
  00038	f2 0f 5e d9	 divsd	 xmm3, xmm1
  0003c	41 0f 28 c8	 movaps	 xmm1, xmm8
  00040	f2 0f 5e c8	 divsd	 xmm1, xmm0
  00044	f2 41 0f 58 d8	 addsd	 xmm3, xmm8
  00049	f2 0f 58 d9	 addsd	 xmm3, xmm1
  0004d	0f 28 c8	 movaps	 xmm1, xmm0
  00050	41 0f 28 c0	 movaps	 xmm0, xmm8
  00054	f2 0f 59 da	 mulsd	 xmm3, xmm2
  00058	f2 0f 5e 1d 00
	00 00 00	 divsd	 xmm3, QWORD PTR __real@4018000000000000
  00060	f2 0f 10 15 00
	00 00 00	 movsdx	 xmm2, QWORD PTR __real@3e45798ee2308c3a
  00068	e8 00 00 00 00	 call	 asr_4
  0006d	f2 0f 10 1d 00
	00 00 00	 movsdx	 xmm3, QWORD PTR __real@3fe638e38e38e38d
  00075	f2 0f 10 15 00
	00 00 00	 movsdx	 xmm2, QWORD PTR __real@3e45798ee2308c3a
  0007d	f2 0f 10 0d 00
	00 00 00	 movsdx	 xmm1, QWORD PTR __real@4000000000000000
  00085	0f 28 f8	 movaps	 xmm7, xmm0
  00088	41 0f 28 c0	 movaps	 xmm0, xmm8
  0008c	e8 00 00 00 00	 call	 asr_4
; Line 267
  00091	44 0f 28 44 24
	20		 movaps	 xmm8, XMMWORD PTR [rsp+32]
  00097	f2 0f 5e f8	 divsd	 xmm7, xmm0
  0009b	0f 28 c7	 movaps	 xmm0, xmm7
  0009e	0f 28 7c 24 30	 movaps	 xmm7, XMMWORD PTR [rsp+48]
  000a3	48 83 c4 48	 add	 rsp, 72			; 00000048H
  000a7	c3		 ret	 0
_log2	ENDP
_TEXT	ENDS
; Function compile flags: /Ogtpy
;	COMDAT _log
_TEXT	SEGMENT
n$ = 8
_log	PROC						; COMDAT
; File f:\0\luaspq-1.1\luaspq-1.1\src\lmathlibc.c
; Line 262
  00000	f2 0f 10 1d 00
	00 00 00	 movsdx	 xmm3, QWORD PTR __real@4010000000000000
  00008	0f 28 e0	 movaps	 xmm4, xmm0
  0000b	0f 28 d0	 movaps	 xmm2, xmm0
  0000e	f2 0f 10 05 00
	00 00 00	 movsdx	 xmm0, QWORD PTR __real@3ff0000000000000
  00016	f2 0f 5c d0	 subsd	 xmm2, xmm0
  0001a	0f 28 ca	 movaps	 xmm1, xmm2
  0001d	f2 0f 59 0d 00
	00 00 00	 mulsd	 xmm1, QWORD PTR __real@3fe0000000000000
  00025	f2 0f 58 c8	 addsd	 xmm1, xmm0
  00029	f2 0f 5e d9	 divsd	 xmm3, xmm1
  0002d	0f 28 c8	 movaps	 xmm1, xmm0
  00030	f2 0f 5e cc	 divsd	 xmm1, xmm4
  00034	f2 0f 58 d8	 addsd	 xmm3, xmm0
  00038	f2 0f 58 d9	 addsd	 xmm3, xmm1
  0003c	0f 28 cc	 movaps	 xmm1, xmm4
  0003f	f2 0f 59 da	 mulsd	 xmm3, xmm2
  00043	f2 0f 10 15 00
	00 00 00	 movsdx	 xmm2, QWORD PTR __real@3e45798ee2308c3a
  0004b	f2 0f 5e 1d 00
	00 00 00	 divsd	 xmm3, QWORD PTR __real@4018000000000000
  00053	e9 00 00 00 00	 jmp	 asr_4
_log	ENDP
_TEXT	ENDS
; Function compile flags: /Ogtpy
;	COMDAT _log10
_TEXT	SEGMENT
n$ = 80
_log10	PROC						; COMDAT
; File f:\0\luaspq-1.1\luaspq-1.1\src\lmathlibc.c
; Line 257
$LN36:
  00000	48 83 ec 48	 sub	 rsp, 72			; 00000048H
; Line 258
  00004	f2 0f 10 1d 00
	00 00 00	 movsdx	 xmm3, QWORD PTR __real@4010000000000000
  0000c	0f 28 d0	 movaps	 xmm2, xmm0
  0000f	0f 29 7c 24 30	 movaps	 XMMWORD PTR [rsp+48], xmm7
  00014	44 0f 29 44 24
	20		 movaps	 XMMWORD PTR [rsp+32], xmm8
  0001a	f2 44 0f 10 05
	00 00 00 00	 movsdx	 xmm8, QWORD PTR __real@3ff0000000000000
  00023	f2 41 0f 5c d0	 subsd	 xmm2, xmm8
  00028	0f 28 ca	 movaps	 xmm1, xmm2
  0002b	f2 0f 59 0d 00
	00 00 00	 mulsd	 xmm1, QWORD PTR __real@3fe0000000000000
  00033	f2 41 0f 58 c8	 addsd	 xmm1, xmm8
  00038	f2 0f 5e d9	 divsd	 xmm3, xmm1
  0003c	41 0f 28 c8	 movaps	 xmm1, xmm8
  00040	f2 0f 5e c8	 divsd	 xmm1, xmm0
  00044	f2 41 0f 58 d8	 addsd	 xmm3, xmm8
  00049	f2 0f 58 d9	 addsd	 xmm3, xmm1
  0004d	0f 28 c8	 movaps	 xmm1, xmm0
  00050	41 0f 28 c0	 movaps	 xmm0, xmm8
  00054	f2 0f 59 da	 mulsd	 xmm3, xmm2
  00058	f2 0f 5e 1d 00
	00 00 00	 divsd	 xmm3, QWORD PTR __real@4018000000000000
  00060	f2 0f 10 15 00
	00 00 00	 movsdx	 xmm2, QWORD PTR __real@3e45798ee2308c3a
  00068	e8 00 00 00 00	 call	 asr_4
  0006d	f2 0f 10 1d 00
	00 00 00	 movsdx	 xmm3, QWORD PTR __real@4005ed61bed61bed
  00075	f2 0f 10 15 00
	00 00 00	 movsdx	 xmm2, QWORD PTR __real@3e45798ee2308c3a
  0007d	f2 0f 10 0d 00
	00 00 00	 movsdx	 xmm1, QWORD PTR __real@4024000000000000
  00085	0f 28 f8	 movaps	 xmm7, xmm0
  00088	41 0f 28 c0	 movaps	 xmm0, xmm8
  0008c	e8 00 00 00 00	 call	 asr_4
; Line 259
  00091	44 0f 28 44 24
	20		 movaps	 xmm8, XMMWORD PTR [rsp+32]
  00097	f2 0f 5e f8	 divsd	 xmm7, xmm0
  0009b	0f 28 c7	 movaps	 xmm0, xmm7
  0009e	0f 28 7c 24 30	 movaps	 xmm7, XMMWORD PTR [rsp+48]
  000a3	48 83 c4 48	 add	 rsp, 72			; 00000048H
  000a7	c3		 ret	 0
_log10	ENDP
_TEXT	ENDS
; Function compile flags: /Ogtpy
;	COMDAT _exp
_TEXT	SEGMENT
x$ = 64
_exp	PROC						; COMDAT
; File f:\0\luaspq-1.1\luaspq-1.1\src\lmathlibc.c
; Line 236
$LN9:
  00000	48 83 ec 38	 sub	 rsp, 56			; 00000038H
  00004	0f 57 d2	 xorps	 xmm2, xmm2
  00007	0f 28 c8	 movaps	 xmm1, xmm0
; Line 237
  0000a	66 0f 2f d0	 comisd	 xmm2, xmm0
  0000e	76 23		 jbe	 SHORT $LN1@exp
; Line 239
  00010	0f 57 0d 00 00
	00 00		 xorps	 xmm1, QWORD PTR __xmm@80000000000000008000000000000000
  00017	0f 28 c1	 movaps	 xmm0, xmm1
  0001a	e8 00 00 00 00	 call	 _exp
  0001f	f2 0f 10 0d 00
	00 00 00	 movsdx	 xmm1, QWORD PTR __real@3ff0000000000000
  00027	f2 0f 5e c8	 divsd	 xmm1, xmm0
  0002b	0f 28 c1	 movaps	 xmm0, xmm1
; Line 246
  0002e	48 83 c4 38	 add	 rsp, 56			; 00000038H
  00032	c3		 ret	 0
$LN1@exp:
; Line 241
  00033	66 0f 2f c2	 comisd	 xmm0, xmm2
  00037	48 89 5c 24 30	 mov	 QWORD PTR [rsp+48], rbx
  0003c	0f 29 74 24 20	 movaps	 XMMWORD PTR [rsp+32], xmm6
  00041	f2 0f 2c d8	 cvttsd2si ebx, xmm0
  00045	73 02		 jae	 SHORT $LN4@exp
  00047	ff cb		 dec	 ebx
$LN4@exp:
; Line 242
  00049	66 0f 6e c3	 movd	 xmm0, ebx
  0004d	f3 0f e6 c0	 cvtdq2pd xmm0, xmm0
  00051	f2 0f 5c c8	 subsd	 xmm1, xmm0
; Line 244
  00055	0f 28 c1	 movaps	 xmm0, xmm1
  00058	e8 00 00 00 00	 call	 eee
  0005d	8b d3		 mov	 edx, ebx
  0005f	0f 28 f0	 movaps	 xmm6, xmm0
  00062	f2 0f 10 05 00
	00 00 00	 movsdx	 xmm0, QWORD PTR __real@4005bf0a8b145769
  0006a	e8 00 00 00 00	 call	 __pow
  0006f	48 8b 5c 24 30	 mov	 rbx, QWORD PTR [rsp+48]
; Line 245
  00074	f2 0f 59 f0	 mulsd	 xmm6, xmm0
  00078	0f 28 c6	 movaps	 xmm0, xmm6
  0007b	0f 28 74 24 20	 movaps	 xmm6, XMMWORD PTR [rsp+32]
; Line 246
  00080	48 83 c4 38	 add	 rsp, 56			; 00000038H
  00084	c3		 ret	 0
_exp	ENDP
_TEXT	ENDS
; Function compile flags: /Ogtpy
;	COMDAT _round
_TEXT	SEGMENT
tv131 = 96
u$1 = 96
u$2 = 96
u$3 = 96
val$ = 96
places$ = 104
_round	PROC						; COMDAT
; File f:\0\luaspq-1.1\luaspq-1.1\src\lmathlibc.c
; Line 210
$LN28:
  00000	48 89 5c 24 10	 mov	 QWORD PTR [rsp+16], rbx
  00005	48 89 74 24 18	 mov	 QWORD PTR [rsp+24], rsi
  0000a	57		 push	 rdi
  0000b	48 83 ec 50	 sub	 rsp, 80			; 00000050H
  0000f	0f 29 74 24 40	 movaps	 XMMWORD PTR [rsp+64], xmm6
  00014	0f 29 7c 24 30	 movaps	 XMMWORD PTR [rsp+48], xmm7
  00019	0f 28 f8	 movaps	 xmm7, xmm0
; Line 212
  0001c	f2 0f 10 05 00
	00 00 00	 movsdx	 xmm0, QWORD PTR __real@4024000000000000
  00024	44 0f 29 44 24
	20		 movaps	 XMMWORD PTR [rsp+32], xmm8
  0002a	e8 00 00 00 00	 call	 __pow
; Line 215
  0002f	48 b9 00 00 00
	00 00 00 f0 7f	 mov	 rcx, 9218868437227405312 ; 7ff0000000000000H
  00039	0f 28 f0	 movaps	 xmm6, xmm0
  0003c	44 0f 28 c0	 movaps	 xmm8, xmm0
  00040	f2 0f 59 f7	 mulsd	 xmm6, xmm7
  00044	f2 0f 11 74 24
	60		 movsdx	 QWORD PTR u$3[rsp], xmm6
  0004a	48 8b 44 24 60	 mov	 rax, QWORD PTR u$3[rsp]
  0004f	48 3b c1	 cmp	 rax, rcx
  00052	0f 84 cf 00 00
	00		 je	 $LN5@round
  00058	33 c9		 xor	 ecx, ecx
  0005a	48 bb 00 00 00
	00 00 00 f0 ff	 mov	 rbx, -4503599627370496	; fff0000000000000H
  00064	48 3b c3	 cmp	 rax, rbx
  00067	0f 95 c1	 setne	 cl
  0006a	ff c9		 dec	 ecx
  0006c	0f 85 b5 00 00
	00		 jne	 $LN5@round
  00072	f2 0f 11 74 24
	60		 movsdx	 QWORD PTR u$2[rsp], xmm6
  00078	48 bf 00 00 00
	00 00 00 10 00	 mov	 rdi, 4503599627370496	; 0010000000000000H
  00082	48 be ff ff ff
	ff ff ff f7 7f	 mov	 rsi, 9221120237041090559 ; 7ff7ffffffffffffH
  0008c	48 8b 44 24 60	 mov	 rax, QWORD PTR u$2[rsp]
  00091	48 8d 0c 38	 lea	 rcx, QWORD PTR [rax+rdi]
  00095	48 85 ce	 test	 rcx, rsi
  00098	75 09		 jne	 SHORT $LN23@round
  0009a	48 3b c3	 cmp	 rax, rbx
  0009d	0f 85 84 00 00
	00		 jne	 $LN5@round
$LN23@round:
  000a3	0f 57 c0	 xorps	 xmm0, xmm0
; Line 219
  000a6	66 0f 2f f0	 comisd	 xmm6, xmm0
; Line 220
  000aa	0f 28 c6	 movaps	 xmm0, xmm6
  000ad	72 23		 jb	 SHORT $LN4@round
  000af	e8 00 00 00 00	 call	 _ceil
; Line 221
  000b4	0f 28 c8	 movaps	 xmm1, xmm0
  000b7	0f 28 d0	 movaps	 xmm2, xmm0
  000ba	f2 0f 5c ce	 subsd	 xmm1, xmm6
  000be	66 0f 2f 0d 00
	00 00 00	 comisd	 xmm1, QWORD PTR __real@3fe0000000015fd8
  000c6	76 36		 jbe	 SHORT $LN2@round
; Line 222
  000c8	f2 0f 58 15 00
	00 00 00	 addsd	 xmm2, QWORD PTR __real@bff0000000000000
; Line 225
  000d0	eb 2c		 jmp	 SHORT $LN2@round
$LN4@round:
; Line 226
  000d2	f2 0f 10 3d 00
	00 00 00	 movsdx	 xmm7, QWORD PTR __xmm@80000000000000008000000000000000
  000da	0f 57 c7	 xorps	 xmm0, xmm7
  000dd	e8 00 00 00 00	 call	 _ceil
  000e2	0f 28 d0	 movaps	 xmm2, xmm0
; Line 227
  000e5	f2 0f 58 c6	 addsd	 xmm0, xmm6
  000e9	66 0f 2f 05 00
	00 00 00	 comisd	 xmm0, QWORD PTR __real@3fe0000000015fd8
  000f1	76 08		 jbe	 SHORT $LN1@round
; Line 228
  000f3	f2 0f 58 15 00
	00 00 00	 addsd	 xmm2, QWORD PTR __real@bff0000000000000
$LN1@round:
; Line 230
  000fb	0f 57 d7	 xorps	 xmm2, xmm7
$LN2@round:
; Line 232
  000fe	0f 28 c2	 movaps	 xmm0, xmm2
  00101	f2 41 0f 5e c0	 divsd	 xmm0, xmm8
; Line 234
  00106	f2 0f 11 44 24
	60		 movsdx	 QWORD PTR u$1[rsp], xmm0
  0010c	48 8b 44 24 60	 mov	 rax, QWORD PTR u$1[rsp]
  00111	48 8d 0c 38	 lea	 rcx, QWORD PTR [rax+rdi]
  00115	48 85 ce	 test	 rcx, rsi
  00118	75 05		 jne	 SHORT $LN24@round
  0011a	48 3b c3	 cmp	 rax, rbx
  0011d	75 03		 jne	 SHORT $LN10@round
$LN24@round:
  0011f	0f 28 d0	 movaps	 xmm2, xmm0
$LN10@round:
  00122	0f 28 c2	 movaps	 xmm0, xmm2
  00125	eb 03		 jmp	 SHORT $LN7@round
$LN5@round:
; Line 216
  00127	0f 28 c7	 movaps	 xmm0, xmm7
$LN7@round:
; Line 235
  0012a	48 8b 5c 24 68	 mov	 rbx, QWORD PTR [rsp+104]
  0012f	48 8b 74 24 70	 mov	 rsi, QWORD PTR [rsp+112]
  00134	0f 28 74 24 40	 movaps	 xmm6, XMMWORD PTR [rsp+64]
  00139	0f 28 7c 24 30	 movaps	 xmm7, XMMWORD PTR [rsp+48]
  0013e	44 0f 28 44 24
	20		 movaps	 xmm8, XMMWORD PTR [rsp+32]
  00144	48 83 c4 50	 add	 rsp, 80			; 00000050H
  00148	5f		 pop	 rdi
  00149	c3		 ret	 0
_round	ENDP
_TEXT	ENDS
; Function compile flags: /Ogtpy
;	COMDAT _ceil
_TEXT	SEGMENT
y$ = 8
x$ = 8
_ceil	PROC						; COMDAT
; File f:\0\luaspq-1.1\luaspq-1.1\src\lmathlibc.c
; Line 192
  00000	f2 0f 11 44 24
	08		 movsdx	 QWORD PTR y$[rsp], xmm0
  00006	0f 28 c8	 movaps	 xmm1, xmm0
; Line 193
  00009	48 8b 44 24 08	 mov	 rax, QWORD PTR y$[rsp]
  0000e	48 c1 e8 20	 shr	 rax, 32			; 00000020H
  00012	85 c0		 test	 eax, eax
  00014	79 0f		 jns	 SHORT $LN4@ceil
; Line 195
  00016	f2 0f 2c c0	 cvttsd2si eax, xmm0
  0001a	66 0f 6e c0	 movd	 xmm0, eax
  0001e	0f 5b c0	 cvtdq2ps xmm0, xmm0
; Line 205
  00021	0f 5a c0	 cvtps2pd xmm0, xmm0
; Line 208
  00024	c3		 ret	 0
$LN4@ceil:
  00025	0f 57 c0	 xorps	 xmm0, xmm0
; Line 199
  00028	66 0f 2e c8	 ucomisd xmm1, xmm0
  0002c	7a 11		 jp	 SHORT $LN2@ceil
  0002e	75 0f		 jne	 SHORT $LN2@ceil
; Line 201
  00030	f2 0f 2c c1	 cvttsd2si eax, xmm1
  00034	66 0f 6e c0	 movd	 xmm0, eax
  00038	0f 5b c0	 cvtdq2ps xmm0, xmm0
; Line 205
  0003b	0f 5a c0	 cvtps2pd xmm0, xmm0
; Line 208
  0003e	c3		 ret	 0
$LN2@ceil:
; Line 205
  0003f	f2 0f 2c c1	 cvttsd2si eax, xmm1
  00043	66 0f 6e c0	 movd	 xmm0, eax
  00047	0f 5b c0	 cvtdq2ps xmm0, xmm0
  0004a	f3 0f 58 05 00
	00 00 00	 addss	 xmm0, DWORD PTR __real@3f800000
  00052	0f 5a c0	 cvtps2pd xmm0, xmm0
; Line 208
  00055	c3		 ret	 0
_ceil	ENDP
_TEXT	ENDS
; Function compile flags: /Ogtpy
;	COMDAT _floor
_TEXT	SEGMENT
a$ = 8
_floor	PROC						; COMDAT
; File f:\0\luaspq-1.1\luaspq-1.1\src\lmathlibc.c
; Line 180
  00000	0f 57 c9	 xorps	 xmm1, xmm1
; Line 183
  00003	f2 0f 2c c0	 cvttsd2si eax, xmm0
  00007	66 0f 2f c1	 comisd	 xmm0, xmm1
  0000b	73 02		 jae	 SHORT $LN1@floor
; Line 186
  0000d	ff c8		 dec	 eax
$LN1@floor:
; Line 189
  0000f	c3		 ret	 0
_floor	ENDP
_TEXT	ENDS
; Function compile flags: /Ogtpy
;	COMDAT radian_to_angle
_TEXT	SEGMENT
rad$ = 8
ang$ = 16
radian_to_angle PROC					; COMDAT
; File f:\0\luaspq-1.1\luaspq-1.1\src\lmathlibc.c
; Line 166
  00000	0f 28 d0	 movaps	 xmm2, xmm0
; Line 167
  00003	f2 0f 10 05 00
	00 00 00	 movsdx	 xmm0, QWORD PTR __real@bff0000000000000
  0000b	0f 57 c9	 xorps	 xmm1, xmm1
  0000e	66 0f 2f ca	 comisd	 xmm1, xmm2
  00012	76 05		 jbe	 SHORT $LN4@radian_to_
  00014	0f 28 d8	 movaps	 xmm3, xmm0
  00017	eb 08		 jmp	 SHORT $LN5@radian_to_
$LN4@radian_to_:
  00019	f2 0f 10 1d 00
	00 00 00	 movsdx	 xmm3, QWORD PTR __real@3ff0000000000000
$LN5@radian_to_:
; Line 168
  00021	66 0f 2f ca	 comisd	 xmm1, xmm2
  00025	76 04		 jbe	 SHORT $LN1@radian_to_
; Line 170
  00027	f2 0f 59 d0	 mulsd	 xmm2, xmm0
$LN1@radian_to_:
; Line 172
  0002b	f2 0f 59 15 00
	00 00 00	 mulsd	 xmm2, QWORD PTR __real@4066800000000000
  00033	f2 0f 5e 15 00
	00 00 00	 divsd	 xmm2, QWORD PTR __real@400921fb54442d18
; Line 173
  0003b	f2 0f 2c c2	 cvttsd2si eax, xmm2
  0003f	66 0f 6e c0	 movd	 xmm0, eax
  00043	f3 0f e6 c0	 cvtdq2pd xmm0, xmm0
; Line 174
  00047	f2 0f 5c d0	 subsd	 xmm2, xmm0
; Line 176
  0004b	f2 0f 59 c3	 mulsd	 xmm0, xmm3
  0004f	f2 0f 59 15 00
	00 00 00	 mulsd	 xmm2, QWORD PTR __real@404e000000000000
  00057	f2 0f 11 02	 movsdx	 QWORD PTR [rdx], xmm0
  0005b	f2 0f 2c c2	 cvttsd2si eax, xmm2
; Line 177
  0005f	f2 0f 11 52 08	 movsdx	 QWORD PTR [rdx+8], xmm2
  00064	66 0f 6e c0	 movd	 xmm0, eax
  00068	f3 0f e6 c0	 cvtdq2pd xmm0, xmm0
  0006c	f2 0f 5c d0	 subsd	 xmm2, xmm0
  00070	f2 0f 59 15 00
	00 00 00	 mulsd	 xmm2, QWORD PTR __real@404e000000000000
; Line 178
  00078	f2 0f 11 52 10	 movsdx	 QWORD PTR [rdx+16], xmm2
; Line 179
  0007d	c3		 ret	 0
radian_to_angle ENDP
_TEXT	ENDS
; Function compile flags: /Ogtpy
;	COMDAT angle_to_radian
_TEXT	SEGMENT
degree$ = 8
min$ = 16
second$ = 24
angle_to_radian PROC					; COMDAT
; File f:\0\luaspq-1.1\luaspq-1.1\src\lmathlibc.c
; Line 155
  00000	f2 0f 10 1d 00
	00 00 00	 movsdx	 xmm3, QWORD PTR __real@bff0000000000000
  00008	0f 57 ed	 xorps	 xmm5, xmm5
  0000b	66 0f 2f e8	 comisd	 xmm5, xmm0
  0000f	76 05		 jbe	 SHORT $LN4@angle_to_r
  00011	0f 28 e3	 movaps	 xmm4, xmm3
  00014	eb 08		 jmp	 SHORT $LN5@angle_to_r
$LN4@angle_to_r:
  00016	f2 0f 10 25 00
	00 00 00	 movsdx	 xmm4, QWORD PTR __real@3ff0000000000000
$LN5@angle_to_r:
; Line 156
  0001e	66 0f 2f e8	 comisd	 xmm5, xmm0
  00022	76 04		 jbe	 SHORT $LN1@angle_to_r
; Line 158
  00024	f2 0f 59 c3	 mulsd	 xmm0, xmm3
$LN1@angle_to_r:
; Line 160
  00028	f2 0f 5e 0d 00
	00 00 00	 divsd	 xmm1, QWORD PTR __real@404e000000000000
  00030	f2 0f 5e 15 00
	00 00 00	 divsd	 xmm2, QWORD PTR __real@40ac200000000000
  00038	f2 0f 58 c8	 addsd	 xmm1, xmm0
  0003c	f2 0f 58 ca	 addsd	 xmm1, xmm2
; Line 161
  00040	f2 0f 59 0d 00
	00 00 00	 mulsd	 xmm1, QWORD PTR __real@400921fb54442d18
  00048	f2 0f 59 cc	 mulsd	 xmm1, xmm4
  0004c	f2 0f 5e 0d 00
	00 00 00	 divsd	 xmm1, QWORD PTR __real@4066800000000000
; Line 162
  00054	0f 28 c1	 movaps	 xmm0, xmm1
; Line 163
  00057	c3		 ret	 0
angle_to_radian ENDP
_TEXT	ENDS
; Function compile flags: /Ogtpy
;	COMDAT _abs
_TEXT	SEGMENT
value$ = 8
_abs	PROC						; COMDAT
; File f:\0\luaspq-1.1\luaspq-1.1\src\lmathlibc.c
; Line 486
  00000	81 f9 00 00 00
	80		 cmp	 ecx, -2147483648	; 80000000H
  00006	76 02		 jbe	 SHORT $LN3@abs
  00008	f7 d9		 neg	 ecx
$LN3@abs:
  0000a	8b c1		 mov	 eax, ecx
; Line 487
  0000c	c3		 ret	 0
_abs	ENDP
_TEXT	ENDS
; Function compile flags: /Ogtpy
;	COMDAT __pow
_TEXT	SEGMENT
x$ = 64
y$ = 72
__pow	PROC						; COMDAT
; File f:\0\luaspq-1.1\luaspq-1.1\src\lmathlibc.c
; Line 51
$LN12:
  00000	40 53		 push	 rbx
  00002	48 83 ec 30	 sub	 rsp, 48			; 00000030H
  00006	0f 29 74 24 20	 movaps	 XMMWORD PTR [rsp+32], xmm6
  0000b	8b da		 mov	 ebx, edx
  0000d	0f 28 f0	 movaps	 xmm6, xmm0
; Line 52
  00010	85 d2		 test	 edx, edx
  00012	75 13		 jne	 SHORT $LN10@pow
; Line 54
  00014	f2 0f 10 05 00
	00 00 00	 movsdx	 xmm0, QWORD PTR __real@3ff0000000000000
; Line 76
  0001c	0f 28 74 24 20	 movaps	 xmm6, XMMWORD PTR [rsp+32]
  00021	48 83 c4 30	 add	 rsp, 48			; 00000030H
  00025	5b		 pop	 rbx
  00026	c3		 ret	 0
$LN10@pow:
; Line 56
  00027	79 23		 jns	 SHORT $LN5@pow
; Line 58
  00029	f7 db		 neg	 ebx
  0002b	8b d3		 mov	 edx, ebx
  0002d	e8 00 00 00 00	 call	 __pow
  00032	f2 0f 10 0d 00
	00 00 00	 movsdx	 xmm1, QWORD PTR __real@3ff0000000000000
  0003a	f2 0f 5e c8	 divsd	 xmm1, xmm0
  0003e	0f 28 c1	 movaps	 xmm0, xmm1
; Line 76
  00041	0f 28 74 24 20	 movaps	 xmm6, XMMWORD PTR [rsp+32]
  00046	48 83 c4 30	 add	 rsp, 48			; 00000030H
  0004a	5b		 pop	 rbx
  0004b	c3		 ret	 0
$LN5@pow:
; Line 62
  0004c	83 fa 01	 cmp	 edx, 1
  0004f	74 2d		 je	 SHORT $LN1@pow
; Line 64
  00051	8b c2		 mov	 eax, edx
  00053	99		 cdq
  00054	2b c2		 sub	 eax, edx
  00056	d1 f8		 sar	 eax, 1
  00058	8b d0		 mov	 edx, eax
  0005a	e8 00 00 00 00	 call	 __pow
  0005f	0f 28 c8	 movaps	 xmm1, xmm0
; Line 65
  00062	f6 c3 01	 test	 bl, 1
  00065	74 13		 je	 SHORT $LN2@pow
; Line 67
  00067	f2 0f 59 c6	 mulsd	 xmm0, xmm6
  0006b	f2 0f 59 c1	 mulsd	 xmm0, xmm1
; Line 76
  0006f	0f 28 74 24 20	 movaps	 xmm6, XMMWORD PTR [rsp+32]
  00074	48 83 c4 30	 add	 rsp, 48			; 00000030H
  00078	5b		 pop	 rbx
  00079	c3		 ret	 0
$LN2@pow:
; Line 71
  0007a	f2 0f 59 c0	 mulsd	 xmm0, xmm0
$LN1@pow:
; Line 76
  0007e	0f 28 74 24 20	 movaps	 xmm6, XMMWORD PTR [rsp+32]
  00083	48 83 c4 30	 add	 rsp, 48			; 00000030H
  00087	5b		 pop	 rbx
  00088	c3		 ret	 0
__pow	ENDP
_TEXT	ENDS
; Function compile flags: /Ogtpy
;	COMDAT sqrt_1
_TEXT	SEGMENT
a$ = 8
sqrt_1	PROC						; COMDAT
; File f:\0\luaspq-1.1\luaspq-1.1\src\lmathlibc.c
; Line 144
  00000	f2 0f 10 25 00
	00 00 00	 movsdx	 xmm4, QWORD PTR __real@3fe0000000000000
  00008	0f 28 d8	 movaps	 xmm3, xmm0
  0000b	0f 57 c0	 xorps	 xmm0, xmm0
  0000e	0f 28 d3	 movaps	 xmm2, xmm3
  00011	f2 0f 59 d4	 mulsd	 xmm2, xmm4
; Line 145
  00015	66 0f 2e c2	 ucomisd xmm0, xmm2
  00019	7a 05		 jp	 SHORT $LL2@sqrt_1
  0001b	74 20		 je	 SHORT $LN1@sqrt_1
  0001d	0f 1f 00	 npad	 3
$LL2@sqrt_1:
; Line 147
  00020	0f 28 c2	 movaps	 xmm0, xmm2
; Line 148
  00023	0f 28 cb	 movaps	 xmm1, xmm3
  00026	f2 0f 5e ca	 divsd	 xmm1, xmm2
  0002a	f2 0f 58 ca	 addsd	 xmm1, xmm2
  0002e	0f 28 d1	 movaps	 xmm2, xmm1
  00031	f2 0f 59 d4	 mulsd	 xmm2, xmm4
  00035	66 0f 2e c2	 ucomisd xmm0, xmm2
  00039	7a e5		 jp	 SHORT $LL2@sqrt_1
; Line 145
  0003b	75 e3		 jne	 SHORT $LL2@sqrt_1
$LN1@sqrt_1:
; Line 151
  0003d	c3		 ret	 0
sqrt_1	ENDP
_TEXT	ENDS
; Function compile flags: /Ogtpy
;	COMDAT sqrt_2
_TEXT	SEGMENT
a$ = 8
sqrt_2	PROC						; COMDAT
; File f:\0\luaspq-1.1\luaspq-1.1\src\lmathlibc.c
; Line 129
  00000	0f 28 d8	 movaps	 xmm3, xmm0
  00003	0f 57 d2	 xorps	 xmm2, xmm2
  00006	0f 57 c0	 xorps	 xmm0, xmm0
; Line 132
  00009	0f 28 cb	 movaps	 xmm1, xmm3
  0000c	f3 0f 59 0d 00
	00 00 00	 mulss	 xmm1, DWORD PTR __real@3f000000
  00014	f3 0f 5a d1	 cvtss2sd xmm2, xmm1
; Line 133
  00018	66 0f 2e c2	 ucomisd xmm0, xmm2
  0001c	7a 02		 jp	 SHORT $LN10@sqrt_2
  0001e	74 31		 je	 SHORT $LN1@sqrt_2
$LN10@sqrt_2:
  00020	f2 0f 10 25 00
	00 00 00	 movsdx	 xmm4, QWORD PTR __real@3fe0000000000000
  00028	0f 1f 84 00 00
	00 00 00	 npad	 8
$LL2@sqrt_2:
  00030	0f 57 c9	 xorps	 xmm1, xmm1
; Line 135
  00033	0f 28 c2	 movaps	 xmm0, xmm2
; Line 136
  00036	f3 0f 5a cb	 cvtss2sd xmm1, xmm3
  0003a	f2 0f 5e ca	 divsd	 xmm1, xmm2
  0003e	f2 0f 58 ca	 addsd	 xmm1, xmm2
  00042	0f 28 d1	 movaps	 xmm2, xmm1
  00045	f2 0f 59 d4	 mulsd	 xmm2, xmm4
  00049	66 0f 2e c2	 ucomisd xmm0, xmm2
  0004d	7a e1		 jp	 SHORT $LL2@sqrt_2
; Line 133
  0004f	75 df		 jne	 SHORT $LL2@sqrt_2
$LN1@sqrt_2:
; Line 139
  00051	c3		 ret	 0
sqrt_2	ENDP
_TEXT	ENDS
; Function compile flags: /Ogtpy
;	COMDAT _tan
_TEXT	SEGMENT
t$ = 80
_tan	PROC						; COMDAT
; File f:\0\luaspq-1.1\luaspq-1.1\src\lmathlibc.c
; Line 121
$LN29:
  00000	48 83 ec 48	 sub	 rsp, 72			; 00000048H
  00004	0f 57 c9	 xorps	 xmm1, xmm1
  00007	0f 29 7c 24 20	 movaps	 XMMWORD PTR [rsp+32], xmm7
  0000c	0f 28 f8	 movaps	 xmm7, xmm0
; Line 122
  0000f	66 0f 2f c1	 comisd	 xmm0, xmm1
  00013	0f 28 c8	 movaps	 xmm1, xmm0
  00016	77 07		 ja	 SHORT $LN26@tan
  00018	0f 57 0d 00 00
	00 00		 xorps	 xmm1, QWORD PTR __xmm@80000000000000008000000000000000
$LN26@tan:
  0001f	f2 0f 5c 0d 00
	00 00 00	 subsd	 xmm1, QWORD PTR __real@4056800000000000
  00027	0f 28 c1	 movaps	 xmm0, xmm1
  0002a	f2 0f 5e 05 00
	00 00 00	 divsd	 xmm0, QWORD PTR __real@4066800000000000
  00032	f2 0f 2c c0	 cvttsd2si eax, xmm0
  00036	69 c8 b4 00 00
	00		 imul	 ecx, eax, 180		; 000000b4H
  0003c	66 0f 6e c1	 movd	 xmm0, ecx
  00040	f3 0f e6 c0	 cvtdq2pd xmm0, xmm0
  00044	66 0f 2e c8	 ucomisd xmm1, xmm0
  00048	7a 14		 jp	 SHORT $LN1@tan
  0004a	75 12		 jne	 SHORT $LN1@tan
; Line 124
  0004c	f2 0f 10 05 00
	00 00 00	 movsdx	 xmm0, QWORD PTR __real@7ff0000000000000
; Line 127
  00054	0f 28 7c 24 20	 movaps	 xmm7, XMMWORD PTR [rsp+32]
  00059	48 83 c4 48	 add	 rsp, 72			; 00000048H
  0005d	c3		 ret	 0
$LN1@tan:
; Line 126
  0005e	0f 28 c7	 movaps	 xmm0, xmm7
  00061	0f 29 74 24 30	 movaps	 XMMWORD PTR [rsp+48], xmm6
  00066	e8 00 00 00 00	 call	 _sin
  0006b	0f 28 f0	 movaps	 xmm6, xmm0
  0006e	0f 28 c7	 movaps	 xmm0, xmm7
  00071	e8 00 00 00 00	 call	 _cos
; Line 127
  00076	0f 28 7c 24 20	 movaps	 xmm7, XMMWORD PTR [rsp+32]
  0007b	f2 0f 5e f0	 divsd	 xmm6, xmm0
  0007f	0f 28 c6	 movaps	 xmm0, xmm6
  00082	0f 28 74 24 30	 movaps	 xmm6, XMMWORD PTR [rsp+48]
  00087	48 83 c4 48	 add	 rsp, 72			; 00000048H
  0008b	c3		 ret	 0
_tan	ENDP
_TEXT	ENDS
; Function compile flags: /Ogtpy
;	COMDAT _cos
_TEXT	SEGMENT
t$ = 80
_cos	PROC						; COMDAT
; File f:\0\luaspq-1.1\luaspq-1.1\src\lmathlibc.c
; Line 103
$LN48:
  00000	48 83 ec 48	 sub	 rsp, 72			; 00000048H
  00004	0f 57 db	 xorps	 xmm3, xmm3
; Line 104
  00007	0f 28 d0	 movaps	 xmm2, xmm0
  0000a	66 0f 2f c3	 comisd	 xmm0, xmm3
  0000e	77 07		 ja	 SHORT $LN22@cos
  00010	0f 57 15 00 00
	00 00		 xorps	 xmm2, QWORD PTR __xmm@80000000000000008000000000000000
$LN22@cos:
  00017	f2 0f 5c 15 00
	00 00 00	 subsd	 xmm2, QWORD PTR __real@4056800000000000
  0001f	0f 28 ca	 movaps	 xmm1, xmm2
  00022	f2 0f 5e 0d 00
	00 00 00	 divsd	 xmm1, QWORD PTR __real@4066800000000000
  0002a	f2 0f 2c c1	 cvttsd2si eax, xmm1
  0002e	69 c8 b4 00 00
	00		 imul	 ecx, eax, 180		; 000000b4H
  00034	66 0f 6e c9	 movd	 xmm1, ecx
  00038	f3 0f e6 c9	 cvtdq2pd xmm1, xmm1
  0003c	66 0f 2e d1	 ucomisd xmm2, xmm1
  00040	7a 0a		 jp	 SHORT $LN1@cos
  00042	75 08		 jne	 SHORT $LN1@cos
; Line 106
  00044	0f 28 c3	 movaps	 xmm0, xmm3
; Line 119
  00047	48 83 c4 48	 add	 rsp, 72			; 00000048H
  0004b	c3		 ret	 0
$LN1@cos:
; Line 109
  0004c	66 0f 2f c3	 comisd	 xmm0, xmm3
  00050	0f 29 74 24 30	 movaps	 XMMWORD PTR [rsp+48], xmm6
  00055	f2 0f 2c c0	 cvttsd2si eax, xmm0
  00059	0f 29 7c 24 20	 movaps	 XMMWORD PTR [rsp+32], xmm7
  0005e	73 02		 jae	 SHORT $LN27@cos
  00060	ff c8		 dec	 eax
$LN27@cos:
; Line 110
  00062	f2 0f 10 2d 00
	00 00 00	 movsdx	 xmm5, QWORD PTR __real@404e000000000000
  0006a	66 0f 6e c8	 movd	 xmm1, eax
  0006e	f3 0f e6 c9	 cvtdq2pd xmm1, xmm1
  00072	f2 0f 5c c1	 subsd	 xmm0, xmm1
  00076	f2 0f 59 c5	 mulsd	 xmm0, xmm5
; Line 111
  0007a	66 0f 2f c3	 comisd	 xmm0, xmm3
  0007e	f2 0f 2c c0	 cvttsd2si eax, xmm0
  00082	73 02		 jae	 SHORT $LN31@cos
  00084	ff c8		 dec	 eax
$LN31@cos:
; Line 113
  00086	66 0f 2f d9	 comisd	 xmm3, xmm1
  0008a	f2 0f 10 35 00
	00 00 00	 movsdx	 xmm6, QWORD PTR __real@3ff0000000000000
  00092	f2 0f 10 25 00
	00 00 00	 movsdx	 xmm4, QWORD PTR __real@bff0000000000000
  0009a	66 0f 6e d0	 movd	 xmm2, eax
  0009e	f3 0f e6 d2	 cvtdq2pd xmm2, xmm2
  000a2	f2 0f 5c c2	 subsd	 xmm0, xmm2
  000a6	f2 0f 59 c5	 mulsd	 xmm0, xmm5
  000aa	76 05		 jbe	 SHORT $LN38@cos
  000ac	0f 28 fc	 movaps	 xmm7, xmm4
  000af	eb 03		 jmp	 SHORT $LN39@cos
$LN38@cos:
  000b1	0f 28 fe	 movaps	 xmm7, xmm6
$LN39@cos:
  000b4	66 0f 2f d9	 comisd	 xmm3, xmm1
  000b8	76 04		 jbe	 SHORT $LN35@cos
  000ba	f2 0f 59 cc	 mulsd	 xmm1, xmm4
$LN35@cos:
  000be	f2 0f 5e 05 00
	00 00 00	 divsd	 xmm0, QWORD PTR __real@40ac200000000000
  000c6	f2 0f 5e d5	 divsd	 xmm2, xmm5
  000ca	f2 0f 58 d1	 addsd	 xmm2, xmm1
  000ce	f2 0f 10 0d 00
	00 00 00	 movsdx	 xmm1, QWORD PTR __real@400921fb54442d18
  000d6	f2 0f 58 d0	 addsd	 xmm2, xmm0
; Line 115
  000da	f2 0f 10 05 00
	00 00 00	 movsdx	 xmm0, QWORD PTR __real@3ff921fb54442d18
  000e2	f2 0f 59 d1	 mulsd	 xmm2, xmm1
  000e6	f2 0f 59 d7	 mulsd	 xmm2, xmm7
  000ea	0f 28 7c 24 20	 movaps	 xmm7, XMMWORD PTR [rsp+32]
  000ef	f2 0f 5e 15 00
	00 00 00	 divsd	 xmm2, QWORD PTR __real@4066800000000000
  000f7	f2 0f 5c c2	 subsd	 xmm0, xmm2
  000fb	66 0f 2f d8	 comisd	 xmm3, xmm0
  000ff	76 07		 jbe	 SHORT $LN40@cos
  00101	0f 28 f4	 movaps	 xmm6, xmm4
  00104	f2 0f 59 c4	 mulsd	 xmm0, xmm4
$LN40@cos:
  00108	f2 0f 59 05 00
	00 00 00	 mulsd	 xmm0, QWORD PTR __real@4066800000000000
  00110	f2 0f 5e c1	 divsd	 xmm0, xmm1
  00114	f2 0f 2c c0	 cvttsd2si eax, xmm0
  00118	66 0f 6e d8	 movd	 xmm3, eax
  0011c	f3 0f e6 db	 cvtdq2pd xmm3, xmm3
  00120	f2 0f 5c c3	 subsd	 xmm0, xmm3
  00124	f2 0f 59 de	 mulsd	 xmm3, xmm6
  00128	f2 0f 59 c5	 mulsd	 xmm0, xmm5
  0012c	f2 0f 2c c0	 cvttsd2si eax, xmm0
  00130	0f 28 d0	 movaps	 xmm2, xmm0
; Line 116
  00133	f2 0f 5e c5	 divsd	 xmm0, xmm5
  00137	66 0f 6e c8	 movd	 xmm1, eax
  0013b	f3 0f e6 c9	 cvtdq2pd xmm1, xmm1
  0013f	f2 0f 5c d1	 subsd	 xmm2, xmm1
  00143	f2 0f 58 c3	 addsd	 xmm0, xmm3
  00147	f2 0f 59 d5	 mulsd	 xmm2, xmm5
  0014b	f2 0f 5e 15 00
	00 00 00	 divsd	 xmm2, QWORD PTR __real@40ac200000000000
  00153	f2 0f 58 c2	 addsd	 xmm0, xmm2
; Line 117
  00157	0f 28 74 24 30	 movaps	 xmm6, XMMWORD PTR [rsp+48]
; Line 119
  0015c	48 83 c4 48	 add	 rsp, 72			; 00000048H
; Line 117
  00160	e9 00 00 00 00	 jmp	 _sin
_cos	ENDP
_TEXT	ENDS
; Function compile flags: /Ogtpy
;	COMDAT _sin
_TEXT	SEGMENT
t$ = 80
_sin	PROC						; COMDAT
; File f:\0\luaspq-1.1\luaspq-1.1\src\lmathlibc.c
; Line 77
$LN49:
  00000	48 83 ec 48	 sub	 rsp, 72			; 00000048H
  00004	0f 57 db	 xorps	 xmm3, xmm3
; Line 78
  00007	0f 28 d0	 movaps	 xmm2, xmm0
  0000a	66 0f 2f c3	 comisd	 xmm0, xmm3
  0000e	77 07		 ja	 SHORT $LN23@sin
  00010	0f 57 15 00 00
	00 00		 xorps	 xmm2, QWORD PTR __xmm@80000000000000008000000000000000
$LN23@sin:
  00017	f2 0f 10 25 00
	00 00 00	 movsdx	 xmm4, QWORD PTR __real@4066800000000000
  0001f	f2 0f 5c d4	 subsd	 xmm2, xmm4
  00023	0f 28 ca	 movaps	 xmm1, xmm2
  00026	f2 0f 5e cc	 divsd	 xmm1, xmm4
  0002a	f2 0f 2c c1	 cvttsd2si eax, xmm1
  0002e	69 c8 b4 00 00
	00		 imul	 ecx, eax, 180		; 000000b4H
  00034	66 0f 6e c9	 movd	 xmm1, ecx
  00038	f3 0f e6 c9	 cvtdq2pd xmm1, xmm1
  0003c	66 0f 2e d1	 ucomisd xmm2, xmm1
  00040	7a 0a		 jp	 SHORT $LN6@sin
  00042	75 08		 jne	 SHORT $LN6@sin
; Line 80
  00044	0f 28 c3	 movaps	 xmm0, xmm3
; Line 101
  00047	48 83 c4 48	 add	 rsp, 72			; 00000048H
  0004b	c3		 ret	 0
$LN6@sin:
  0004c	48 89 5c 24 50	 mov	 QWORD PTR [rsp+80], rbx
  00051	48 89 7c 24 40	 mov	 QWORD PTR [rsp+64], rdi
  00056	0f 29 74 24 30	 movaps	 XMMWORD PTR [rsp+48], xmm6
  0005b	0f 29 7c 24 20	 movaps	 XMMWORD PTR [rsp+32], xmm7
; Line 83
  00060	f2 0f 5e e0	 divsd	 xmm4, xmm0
  00064	40 b7 01	 mov	 dil, 1
  00067	bb 03 00 00 00	 mov	 ebx, 3
  0006c	f2 0f 10 3d 00
	00 00 00	 movsdx	 xmm7, QWORD PTR __real@400921fb54442d18
  00074	f2 0f 5e fc	 divsd	 xmm7, xmm4
; Line 84
  00078	0f 28 f7	 movaps	 xmm6, xmm7
  0007b	0f 1f 44 00 00	 npad	 5
$LL5@sin:
; Line 89
  00080	0f 28 c7	 movaps	 xmm0, xmm7
  00083	8b d3		 mov	 edx, ebx
  00085	e8 00 00 00 00	 call	 __pow
; Line 90
  0008a	b9 01 00 00 00	 mov	 ecx, 1
  0008f	8b c1		 mov	 eax, ecx
  00091	3b d9		 cmp	 ebx, ecx
  00093	7e 09		 jle	 SHORT $LN32@sin
$LL41@sin:
  00095	ff c0		 inc	 eax
  00097	0f af c8	 imul	 ecx, eax
  0009a	3b c3		 cmp	 eax, ebx
  0009c	7c f7		 jl	 SHORT $LL41@sin
$LN32@sin:
  0009e	66 0f 6e c9	 movd	 xmm1, ecx
  000a2	f3 0f e6 c9	 cvtdq2pd xmm1, xmm1
; Line 92
  000a6	f2 0f 5e c1	 divsd	 xmm0, xmm1
  000aa	40 84 ff	 test	 dil, dil
  000ad	74 09		 je	 SHORT $LN2@sin
  000af	f2 0f 5c f0	 subsd	 xmm6, xmm0
; Line 93
  000b3	40 32 ff	 xor	 dil, dil
; Line 95
  000b6	eb 07		 jmp	 SHORT $LN4@sin
$LN2@sin:
; Line 96
  000b8	f2 0f 58 f0	 addsd	 xmm6, xmm0
; Line 97
  000bc	40 b7 01	 mov	 dil, 1
$LN4@sin:
; Line 87
  000bf	83 c3 02	 add	 ebx, 2
  000c2	83 fb 1b	 cmp	 ebx, 27
  000c5	7c b9		 jl	 SHORT $LL5@sin
; Line 100
  000c7	0f 28 7c 24 20	 movaps	 xmm7, XMMWORD PTR [rsp+32]
  000cc	48 8b 7c 24 40	 mov	 rdi, QWORD PTR [rsp+64]
  000d1	48 8b 5c 24 50	 mov	 rbx, QWORD PTR [rsp+80]
  000d6	0f 28 c6	 movaps	 xmm0, xmm6
  000d9	0f 28 74 24 30	 movaps	 xmm6, XMMWORD PTR [rsp+48]
; Line 101
  000de	48 83 c4 48	 add	 rsp, 72			; 00000048H
  000e2	c3		 ret	 0
_sin	ENDP
_TEXT	ENDS
; Function compile flags: /Ogtpy
;	COMDAT CheckDegree
_TEXT	SEGMENT
degree$ = 8
type$ = 16
CheckDegree PROC					; COMDAT
; File f:\0\luaspq-1.1\luaspq-1.1\src\lmathlibc.c
; Line 17
  00000	0f 28 d0	 movaps	 xmm2, xmm0
; Line 20
  00003	85 d2		 test	 edx, edx
  00005	74 22		 je	 SHORT $LN7@CheckDegre
  00007	ff ca		 dec	 edx
  00009	74 04		 je	 SHORT $LN5@CheckDegre
  0000b	ff ca		 dec	 edx
  0000d	75 5a		 jne	 SHORT $LN6@CheckDegre
$LN5@CheckDegre:
  0000f	0f 57 c0	 xorps	 xmm0, xmm0
; Line 39
  00012	66 0f 2f d0	 comisd	 xmm2, xmm0
  00016	77 07		 ja	 SHORT $LN23@CheckDegre
  00018	0f 57 15 00 00
	00 00		 xorps	 xmm2, QWORD PTR __xmm@80000000000000008000000000000000
$LN23@CheckDegre:
  0001f	f2 0f 5c 15 00
	00 00 00	 subsd	 xmm2, QWORD PTR __real@4056800000000000
; Line 45
  00027	eb 18		 jmp	 SHORT $LN27@CheckDegre
$LN7@CheckDegre:
  00029	0f 57 c0	 xorps	 xmm0, xmm0
; Line 23
  0002c	66 0f 2f d0	 comisd	 xmm2, xmm0
  00030	77 07		 ja	 SHORT $LN15@CheckDegre
  00032	0f 57 15 00 00
	00 00		 xorps	 xmm2, QWORD PTR __xmm@80000000000000008000000000000000
$LN15@CheckDegre:
  00039	f2 0f 5c 15 00
	00 00 00	 subsd	 xmm2, QWORD PTR __real@4066800000000000
$LN27@CheckDegre:
; Line 24
  00041	0f 28 c2	 movaps	 xmm0, xmm2
  00044	f2 0f 5e 05 00
	00 00 00	 divsd	 xmm0, QWORD PTR __real@4066800000000000
  0004c	f2 0f 2c c0	 cvttsd2si eax, xmm0
; Line 25
  00050	69 c8 b4 00 00
	00		 imul	 ecx, eax, 180		; 000000b4H
  00056	66 0f 6e c1	 movd	 xmm0, ecx
  0005a	f3 0f e6 c0	 cvtdq2pd xmm0, xmm0
  0005e	66 0f 2e d0	 ucomisd xmm2, xmm0
  00062	7a 05		 jp	 SHORT $LN6@CheckDegre
  00064	75 03		 jne	 SHORT $LN6@CheckDegre
; Line 27
  00066	b0 01		 mov	 al, 1
; Line 49
  00068	c3		 ret	 0
$LN6@CheckDegre:
; Line 29
  00069	32 c0		 xor	 al, al
; Line 49
  0006b	c3		 ret	 0
CheckDegree ENDP
_TEXT	ENDS
; Function compile flags: /Ogtpy
;	COMDAT factorial
_TEXT	SEGMENT
num$ = 8
factorial PROC						; COMDAT
; File f:\0\luaspq-1.1\luaspq-1.1\src\lmathlibc.c
; Line 10
  00000	b8 01 00 00 00	 mov	 eax, 1
; Line 11
  00005	8b d0		 mov	 edx, eax
  00007	3b c8		 cmp	 ecx, eax
  00009	7e 0e		 jle	 SHORT $LN12@factorial
  0000b	0f 1f 44 00 00	 npad	 5
$LL8@factorial:
; Line 12
  00010	ff c2		 inc	 edx
  00012	0f af c2	 imul	 eax, edx
  00015	3b d1		 cmp	 edx, ecx
  00017	7c f7		 jl	 SHORT $LL8@factorial
$LN12@factorial:
; Line 15
  00019	c3		 ret	 0
factorial ENDP
_TEXT	ENDS
; Function compile flags: /Ogtpy
;	COMDAT time
_TEXT	SEGMENT
_Time$ = 8
time	PROC						; COMDAT
; File e:\microsoft visual studio 12.0\vc\include\time.inl
; Line 133
  00000	48 ff 25 00 00
	00 00		 rex_jmp QWORD PTR __imp__time64
time	ENDP
_TEXT	ENDS
END
