; Listing generated by Microsoft (R) Optimizing Compiler Version 18.00.21005.1 

include listing.inc

INCLUDELIB MSVCRT
INCLUDELIB OLDNAMES

PUBLIC	luaP_opmodes
PUBLIC	luaP_opnames
PUBLIC	??_C@_04LPPGDFDD@MOVE?$AA@			; `string'
PUBLIC	??_C@_05KLLCNHFJ@LOADK?$AA@			; `string'
PUBLIC	??_C@_06GAHOIMNL@LOADKX?$AA@			; `string'
PUBLIC	??_C@_08GBBGHEAC@LOADBOOL?$AA@			; `string'
PUBLIC	??_C@_07GHJHEMKM@LOADNIL?$AA@			; `string'
PUBLIC	??_C@_08LCEAGFLN@GETUPVAL?$AA@			; `string'
PUBLIC	??_C@_08GLPJOBD@GETTABUP?$AA@			; `string'
PUBLIC	??_C@_08CCPNOAPI@GETTABLE?$AA@			; `string'
PUBLIC	??_C@_08PHJDINGO@SETTABUP?$AA@			; `string'
PUBLIC	??_C@_08EDGMHGMA@SETUPVAL?$AA@			; `string'
PUBLIC	??_C@_08NDNBPDIF@SETTABLE?$AA@			; `string'
PUBLIC	??_C@_08LPLGEMDO@NEWTABLE?$AA@			; `string'
PUBLIC	??_C@_04DFAHIJNB@SELF?$AA@			; `string'
PUBLIC	??_C@_03BOJFLAKG@ADD?$AA@			; `string'
PUBLIC	??_C@_03KPDLEBHD@SUB?$AA@			; `string'
PUBLIC	??_C@_03IBHOEMFB@MUL?$AA@			; `string'
PUBLIC	??_C@_03FIBGOAPP@MOD?$AA@			; `string'
PUBLIC	??_C@_03JLIKCOCP@POW?$AA@			; `string'
PUBLIC	??_C@_03FJGHKDBE@DIV?$AA@			; `string'
PUBLIC	??_C@_04OLOCLBCN@IDIV?$AA@			; `string'
PUBLIC	??_C@_04NGFHBGFI@BAND?$AA@			; `string'
PUBLIC	??_C@_03BMONEFHO@BOR?$AA@			; `string'
PUBLIC	??_C@_04OGBMNBKN@BXOR?$AA@			; `string'
PUBLIC	??_C@_03CFEGFMNO@SHL?$AA@			; `string'
PUBLIC	??_C@_03PBAHGDAB@SHR?$AA@			; `string'
PUBLIC	??_C@_03BNLLEOPB@UNM?$AA@			; `string'
PUBLIC	??_C@_04MFDEHOGI@BNOT?$AA@			; `string'
PUBLIC	??_C@_03GBFNEA@NOT?$AA@				; `string'
PUBLIC	??_C@_03BHNCOKMG@LEN?$AA@			; `string'
PUBLIC	??_C@_06CIJDJJIA@CONCAT?$AA@			; `string'
PUBLIC	??_C@_03OIOLNLHN@JMP?$AA@			; `string'
PUBLIC	??_C@_02NFEPAFND@EQ?$AA@			; `string'
PUBLIC	??_C@_02KHOJMKBJ@LT?$AA@			; `string'
PUBLIC	??_C@_02PEDAOJAJ@LE?$AA@			; `string'
PUBLIC	??_C@_04OIKJMBFP@TEST?$AA@			; `string'
PUBLIC	??_C@_07GLDFODBB@TESTSET?$AA@			; `string'
PUBLIC	??_C@_04CAGKGBIO@CALL?$AA@			; `string'
PUBLIC	??_C@_08GDMBKKIJ@TAILCALL?$AA@			; `string'
PUBLIC	??_C@_06LJMOENAO@RETURN?$AA@			; `string'
PUBLIC	??_C@_07BJCDCNBK@FORLOOP?$AA@			; `string'
PUBLIC	??_C@_07BDNHFNAN@FORPREP?$AA@			; `string'
PUBLIC	??_C@_08DDAIPFEB@TFORCALL?$AA@			; `string'
PUBLIC	??_C@_08LFLGPGKH@TFORLOOP?$AA@			; `string'
PUBLIC	??_C@_07LGKGOMK@SETLIST?$AA@			; `string'
PUBLIC	??_C@_07CBDMEJDJ@CLOSURE?$AA@			; `string'
PUBLIC	??_C@_06FHOJKFCK@VARARG?$AA@			; `string'
PUBLIC	??_C@_08LNHEMIP@EXTRAARG?$AA@			; `string'
;	COMDAT ??_C@_08LNHEMIP@EXTRAARG?$AA@
CONST	SEGMENT
??_C@_08LNHEMIP@EXTRAARG?$AA@ DB 'EXTRAARG', 00H	; `string'
CONST	ENDS
;	COMDAT ??_C@_06FHOJKFCK@VARARG?$AA@
CONST	SEGMENT
??_C@_06FHOJKFCK@VARARG?$AA@ DB 'VARARG', 00H		; `string'
CONST	ENDS
;	COMDAT ??_C@_07CBDMEJDJ@CLOSURE?$AA@
CONST	SEGMENT
??_C@_07CBDMEJDJ@CLOSURE?$AA@ DB 'CLOSURE', 00H		; `string'
CONST	ENDS
;	COMDAT ??_C@_07LGKGOMK@SETLIST?$AA@
CONST	SEGMENT
??_C@_07LGKGOMK@SETLIST?$AA@ DB 'SETLIST', 00H		; `string'
CONST	ENDS
;	COMDAT ??_C@_08LFLGPGKH@TFORLOOP?$AA@
CONST	SEGMENT
??_C@_08LFLGPGKH@TFORLOOP?$AA@ DB 'TFORLOOP', 00H	; `string'
CONST	ENDS
;	COMDAT ??_C@_08DDAIPFEB@TFORCALL?$AA@
CONST	SEGMENT
??_C@_08DDAIPFEB@TFORCALL?$AA@ DB 'TFORCALL', 00H	; `string'
CONST	ENDS
;	COMDAT ??_C@_07BDNHFNAN@FORPREP?$AA@
CONST	SEGMENT
??_C@_07BDNHFNAN@FORPREP?$AA@ DB 'FORPREP', 00H		; `string'
CONST	ENDS
;	COMDAT ??_C@_07BJCDCNBK@FORLOOP?$AA@
CONST	SEGMENT
??_C@_07BJCDCNBK@FORLOOP?$AA@ DB 'FORLOOP', 00H		; `string'
CONST	ENDS
;	COMDAT ??_C@_06LJMOENAO@RETURN?$AA@
CONST	SEGMENT
??_C@_06LJMOENAO@RETURN?$AA@ DB 'RETURN', 00H		; `string'
CONST	ENDS
;	COMDAT ??_C@_08GDMBKKIJ@TAILCALL?$AA@
CONST	SEGMENT
??_C@_08GDMBKKIJ@TAILCALL?$AA@ DB 'TAILCALL', 00H	; `string'
CONST	ENDS
;	COMDAT ??_C@_04CAGKGBIO@CALL?$AA@
CONST	SEGMENT
??_C@_04CAGKGBIO@CALL?$AA@ DB 'CALL', 00H		; `string'
CONST	ENDS
;	COMDAT ??_C@_07GLDFODBB@TESTSET?$AA@
CONST	SEGMENT
??_C@_07GLDFODBB@TESTSET?$AA@ DB 'TESTSET', 00H		; `string'
CONST	ENDS
;	COMDAT ??_C@_04OIKJMBFP@TEST?$AA@
CONST	SEGMENT
??_C@_04OIKJMBFP@TEST?$AA@ DB 'TEST', 00H		; `string'
CONST	ENDS
;	COMDAT ??_C@_02PEDAOJAJ@LE?$AA@
CONST	SEGMENT
??_C@_02PEDAOJAJ@LE?$AA@ DB 'LE', 00H			; `string'
CONST	ENDS
;	COMDAT ??_C@_02KHOJMKBJ@LT?$AA@
CONST	SEGMENT
??_C@_02KHOJMKBJ@LT?$AA@ DB 'LT', 00H			; `string'
CONST	ENDS
;	COMDAT ??_C@_02NFEPAFND@EQ?$AA@
CONST	SEGMENT
??_C@_02NFEPAFND@EQ?$AA@ DB 'EQ', 00H			; `string'
CONST	ENDS
;	COMDAT ??_C@_03OIOLNLHN@JMP?$AA@
CONST	SEGMENT
??_C@_03OIOLNLHN@JMP?$AA@ DB 'JMP', 00H			; `string'
CONST	ENDS
;	COMDAT ??_C@_06CIJDJJIA@CONCAT?$AA@
CONST	SEGMENT
??_C@_06CIJDJJIA@CONCAT?$AA@ DB 'CONCAT', 00H		; `string'
CONST	ENDS
;	COMDAT ??_C@_03BHNCOKMG@LEN?$AA@
CONST	SEGMENT
??_C@_03BHNCOKMG@LEN?$AA@ DB 'LEN', 00H			; `string'
CONST	ENDS
;	COMDAT ??_C@_03GBFNEA@NOT?$AA@
CONST	SEGMENT
??_C@_03GBFNEA@NOT?$AA@ DB 'NOT', 00H			; `string'
CONST	ENDS
;	COMDAT ??_C@_04MFDEHOGI@BNOT?$AA@
CONST	SEGMENT
??_C@_04MFDEHOGI@BNOT?$AA@ DB 'BNOT', 00H		; `string'
CONST	ENDS
;	COMDAT ??_C@_03BNLLEOPB@UNM?$AA@
CONST	SEGMENT
??_C@_03BNLLEOPB@UNM?$AA@ DB 'UNM', 00H			; `string'
CONST	ENDS
;	COMDAT ??_C@_03PBAHGDAB@SHR?$AA@
CONST	SEGMENT
??_C@_03PBAHGDAB@SHR?$AA@ DB 'SHR', 00H			; `string'
CONST	ENDS
;	COMDAT ??_C@_03CFEGFMNO@SHL?$AA@
CONST	SEGMENT
??_C@_03CFEGFMNO@SHL?$AA@ DB 'SHL', 00H			; `string'
CONST	ENDS
;	COMDAT ??_C@_04OGBMNBKN@BXOR?$AA@
CONST	SEGMENT
??_C@_04OGBMNBKN@BXOR?$AA@ DB 'BXOR', 00H		; `string'
CONST	ENDS
;	COMDAT ??_C@_03BMONEFHO@BOR?$AA@
CONST	SEGMENT
??_C@_03BMONEFHO@BOR?$AA@ DB 'BOR', 00H			; `string'
CONST	ENDS
;	COMDAT ??_C@_04NGFHBGFI@BAND?$AA@
CONST	SEGMENT
??_C@_04NGFHBGFI@BAND?$AA@ DB 'BAND', 00H		; `string'
CONST	ENDS
;	COMDAT ??_C@_04OLOCLBCN@IDIV?$AA@
CONST	SEGMENT
??_C@_04OLOCLBCN@IDIV?$AA@ DB 'IDIV', 00H		; `string'
CONST	ENDS
;	COMDAT ??_C@_03FJGHKDBE@DIV?$AA@
CONST	SEGMENT
??_C@_03FJGHKDBE@DIV?$AA@ DB 'DIV', 00H			; `string'
CONST	ENDS
;	COMDAT ??_C@_03JLIKCOCP@POW?$AA@
CONST	SEGMENT
??_C@_03JLIKCOCP@POW?$AA@ DB 'POW', 00H			; `string'
CONST	ENDS
;	COMDAT ??_C@_03FIBGOAPP@MOD?$AA@
CONST	SEGMENT
??_C@_03FIBGOAPP@MOD?$AA@ DB 'MOD', 00H			; `string'
CONST	ENDS
;	COMDAT ??_C@_03IBHOEMFB@MUL?$AA@
CONST	SEGMENT
??_C@_03IBHOEMFB@MUL?$AA@ DB 'MUL', 00H			; `string'
CONST	ENDS
;	COMDAT ??_C@_03KPDLEBHD@SUB?$AA@
CONST	SEGMENT
??_C@_03KPDLEBHD@SUB?$AA@ DB 'SUB', 00H			; `string'
CONST	ENDS
;	COMDAT ??_C@_03BOJFLAKG@ADD?$AA@
CONST	SEGMENT
??_C@_03BOJFLAKG@ADD?$AA@ DB 'ADD', 00H			; `string'
CONST	ENDS
;	COMDAT ??_C@_04DFAHIJNB@SELF?$AA@
CONST	SEGMENT
??_C@_04DFAHIJNB@SELF?$AA@ DB 'SELF', 00H		; `string'
CONST	ENDS
;	COMDAT ??_C@_08LPLGEMDO@NEWTABLE?$AA@
CONST	SEGMENT
??_C@_08LPLGEMDO@NEWTABLE?$AA@ DB 'NEWTABLE', 00H	; `string'
CONST	ENDS
;	COMDAT ??_C@_08NDNBPDIF@SETTABLE?$AA@
CONST	SEGMENT
??_C@_08NDNBPDIF@SETTABLE?$AA@ DB 'SETTABLE', 00H	; `string'
CONST	ENDS
;	COMDAT ??_C@_08EDGMHGMA@SETUPVAL?$AA@
CONST	SEGMENT
??_C@_08EDGMHGMA@SETUPVAL?$AA@ DB 'SETUPVAL', 00H	; `string'
CONST	ENDS
;	COMDAT ??_C@_08PHJDINGO@SETTABUP?$AA@
CONST	SEGMENT
??_C@_08PHJDINGO@SETTABUP?$AA@ DB 'SETTABUP', 00H	; `string'
CONST	ENDS
;	COMDAT ??_C@_08CCPNOAPI@GETTABLE?$AA@
CONST	SEGMENT
??_C@_08CCPNOAPI@GETTABLE?$AA@ DB 'GETTABLE', 00H	; `string'
CONST	ENDS
;	COMDAT ??_C@_08GLPJOBD@GETTABUP?$AA@
CONST	SEGMENT
??_C@_08GLPJOBD@GETTABUP?$AA@ DB 'GETTABUP', 00H	; `string'
CONST	ENDS
;	COMDAT ??_C@_08LCEAGFLN@GETUPVAL?$AA@
CONST	SEGMENT
??_C@_08LCEAGFLN@GETUPVAL?$AA@ DB 'GETUPVAL', 00H	; `string'
CONST	ENDS
;	COMDAT ??_C@_07GHJHEMKM@LOADNIL?$AA@
CONST	SEGMENT
??_C@_07GHJHEMKM@LOADNIL?$AA@ DB 'LOADNIL', 00H		; `string'
CONST	ENDS
;	COMDAT ??_C@_08GBBGHEAC@LOADBOOL?$AA@
CONST	SEGMENT
??_C@_08GBBGHEAC@LOADBOOL?$AA@ DB 'LOADBOOL', 00H	; `string'
CONST	ENDS
;	COMDAT ??_C@_06GAHOIMNL@LOADKX?$AA@
CONST	SEGMENT
??_C@_06GAHOIMNL@LOADKX?$AA@ DB 'LOADKX', 00H		; `string'
CONST	ENDS
;	COMDAT ??_C@_05KLLCNHFJ@LOADK?$AA@
CONST	SEGMENT
??_C@_05KLLCNHFJ@LOADK?$AA@ DB 'LOADK', 00H		; `string'
CONST	ENDS
;	COMDAT ??_C@_04LPPGDFDD@MOVE?$AA@
CONST	SEGMENT
??_C@_04LPPGDFDD@MOVE?$AA@ DB 'MOVE', 00H		; `string'
CONST	ENDS
CONST	SEGMENT
luaP_opmodes DB	060H
	DB	071H
	DB	041H
	DB	054H
	DB	050H
	DB	050H
	DB	05cH
	DB	06cH
	DB	03cH
	DB	010H
	DB	03cH
	DB	054H
	DB	06cH
	DB	07cH
	DB	07cH
	DB	07cH
	DB	07cH
	DB	07cH
	DB	07cH
	DB	07cH
	DB	07cH
	DB	07cH
	DB	07cH
	DB	07cH
	DB	07cH
	DB	060H
	DB	060H
	DB	060H
	DB	060H
	DB	068H
	DB	022H
	DB	0bcH
	DB	0bcH
	DB	0bcH
	DB	084H
	DB	0e4H
	DB	054H
	DB	054H
	DB	010H
	DB	062H
	DB	062H
	DB	04H
	DB	062H
	DB	014H
	DB	051H
	DB	050H
	DB	017H
	ORG $+1
luaP_opnames DQ	FLAT:??_C@_04LPPGDFDD@MOVE?$AA@
	DQ	FLAT:??_C@_05KLLCNHFJ@LOADK?$AA@
	DQ	FLAT:??_C@_06GAHOIMNL@LOADKX?$AA@
	DQ	FLAT:??_C@_08GBBGHEAC@LOADBOOL?$AA@
	DQ	FLAT:??_C@_07GHJHEMKM@LOADNIL?$AA@
	DQ	FLAT:??_C@_08LCEAGFLN@GETUPVAL?$AA@
	DQ	FLAT:??_C@_08GLPJOBD@GETTABUP?$AA@
	DQ	FLAT:??_C@_08CCPNOAPI@GETTABLE?$AA@
	DQ	FLAT:??_C@_08PHJDINGO@SETTABUP?$AA@
	DQ	FLAT:??_C@_08EDGMHGMA@SETUPVAL?$AA@
	DQ	FLAT:??_C@_08NDNBPDIF@SETTABLE?$AA@
	DQ	FLAT:??_C@_08LPLGEMDO@NEWTABLE?$AA@
	DQ	FLAT:??_C@_04DFAHIJNB@SELF?$AA@
	DQ	FLAT:??_C@_03BOJFLAKG@ADD?$AA@
	DQ	FLAT:??_C@_03KPDLEBHD@SUB?$AA@
	DQ	FLAT:??_C@_03IBHOEMFB@MUL?$AA@
	DQ	FLAT:??_C@_03FIBGOAPP@MOD?$AA@
	DQ	FLAT:??_C@_03JLIKCOCP@POW?$AA@
	DQ	FLAT:??_C@_03FJGHKDBE@DIV?$AA@
	DQ	FLAT:??_C@_04OLOCLBCN@IDIV?$AA@
	DQ	FLAT:??_C@_04NGFHBGFI@BAND?$AA@
	DQ	FLAT:??_C@_03BMONEFHO@BOR?$AA@
	DQ	FLAT:??_C@_04OGBMNBKN@BXOR?$AA@
	DQ	FLAT:??_C@_03CFEGFMNO@SHL?$AA@
	DQ	FLAT:??_C@_03PBAHGDAB@SHR?$AA@
	DQ	FLAT:??_C@_03BNLLEOPB@UNM?$AA@
	DQ	FLAT:??_C@_04MFDEHOGI@BNOT?$AA@
	DQ	FLAT:??_C@_03GBFNEA@NOT?$AA@
	DQ	FLAT:??_C@_03BHNCOKMG@LEN?$AA@
	DQ	FLAT:??_C@_06CIJDJJIA@CONCAT?$AA@
	DQ	FLAT:??_C@_03OIOLNLHN@JMP?$AA@
	DQ	FLAT:??_C@_02NFEPAFND@EQ?$AA@
	DQ	FLAT:??_C@_02KHOJMKBJ@LT?$AA@
	DQ	FLAT:??_C@_02PEDAOJAJ@LE?$AA@
	DQ	FLAT:??_C@_04OIKJMBFP@TEST?$AA@
	DQ	FLAT:??_C@_07GLDFODBB@TESTSET?$AA@
	DQ	FLAT:??_C@_04CAGKGBIO@CALL?$AA@
	DQ	FLAT:??_C@_08GDMBKKIJ@TAILCALL?$AA@
	DQ	FLAT:??_C@_06LJMOENAO@RETURN?$AA@
	DQ	FLAT:??_C@_07BJCDCNBK@FORLOOP?$AA@
	DQ	FLAT:??_C@_07BDNHFNAN@FORPREP?$AA@
	DQ	FLAT:??_C@_08DDAIPFEB@TFORCALL?$AA@
	DQ	FLAT:??_C@_08LFLGPGKH@TFORLOOP?$AA@
	DQ	FLAT:??_C@_07LGKGOMK@SETLIST?$AA@
	DQ	FLAT:??_C@_07CBDMEJDJ@CLOSURE?$AA@
	DQ	FLAT:??_C@_06FHOJKFCK@VARARG?$AA@
	DQ	FLAT:??_C@_08LNHEMIP@EXTRAARG?$AA@
	DQ	0000000000000000H
CONST	ENDS
END
